
__USER_IMAGE_START__:
1000  4E 58 01 LSR $0158
1003  06 00    ASL $00
1005  00       BRK
1006  36 11    ROL $11,X
1008  00       BRK
1009  00       BRK
100A  FA       PLX
100B  11 00    ORA ($00),Y
100D  00       BRK
100E  4E 12 00 LSR $0012
1011  00       BRK
1012  0F 13 00 BBR0 $13,L1015

L1015:
1015  00       BRK
1016  39 13 08 AND $0813,Y
1019  00       BRK
101A  FF 1D FF BBS7 $1D,L101C
101D  00       BRK
101E  00       BRK
101F  00       BRK

t1_print_msg:
1020  8D B7 1E STA $1EB7
1023  8E B8 1E STX $1EB8
1026  98       TYA
1027  8D B9 1E STA $1EB9
102A  9C BA 1E STZ $1EBA
102D  78       SEI
102E  A2 B5    LDX #$B5
1030  A0 1E    LDY #$1E
1032  20 0C F1 JSR LF10C
1035  60       RTS

t1_print_start:
1036  A9 85    LDA #$85
1038  A2 1E    LDX #$1E
103A  A0 12    LDY #$12
103C  4C 20 10 JMP t1_print_msg

t1_print_fail:
103F  A9 A4    LDA #$A4
1041  A2 1E    LDX #$1E
1043  A0 11    LDY #$11
1045  4C 20 10 JMP t1_print_msg

t1_hex_nibble:
1048  29 0F    AND #$0F
104A  C9 0A    CMP #$0A
104C  90 04    BCC @digit
104E  18       CLC
104F  69 37    ADC #$37
1051  60       RTS

@digit:
1052  18       CLC
1053  69 30    ADC #$30
1055  60       RTS

t1_store_hex_byte:
1056  48       PHA
1057  4A       LSR
1058  4A       LSR
1059  4A       LSR
105A  4A       LSR
105B  20 48 10 JSR t1_hex_nibble
105E  99 97 1E STA t1_msg_rate,Y
1061  C8       INY
1062  68       PLA
1063  20 48 10 JSR t1_hex_nibble
1066  99 97 1E STA t1_msg_rate,Y
1069  60       RTS

t1_print_rate:
106A  AD 84 1E LDA t1_delta_loop_hi
106D  A0 08    LDY #$08
106F  20 56 10 JSR t1_store_hex_byte
1072  AD 83 1E LDA t1_delta_loop_lo
1075  A0 0A    LDY #$0A
1077  20 56 10 JSR t1_store_hex_byte
107A  A9 97    LDA #$97
107C  A2 1E    LDX #$1E
107E  A0 0D    LDY #$0D
1080  4C 20 10 JMP t1_print_msg

t1_sample_ticks:
1083  20 33 F1 JSR LF133
1086  8D 81 1E STA t1_now_tick_lo
1089  8E 82 1E STX t1_now_tick_hi
108C  60       RTS

t1_reset_sample:
108D  20 83 10 JSR t1_sample_ticks
1090  AD 81 1E LDA t1_now_tick_lo
1093  8D 7F 1E STA t1_start_tick_lo
1096  AD 82 1E LDA t1_now_tick_hi
1099  8D 80 1E STA t1_start_tick_hi
109C  AD 7B 1E LDA t1_loop_lo
109F  8D 7D 1E STA t1_last_loop_lo
10A2  AD 7C 1E LDA t1_loop_hi
10A5  8D 7E 1E STA t1_last_loop_hi
10A8  60       RTS

t1_tick_elapsed_1s:
10A9  20 83 10 JSR t1_sample_ticks
10AC  38       SEC
10AD  AD 81 1E LDA t1_now_tick_lo
10B0  ED 7F 1E SBC t1_start_tick_lo
10B3  A8       TAY
10B4  AD 82 1E LDA t1_now_tick_hi
10B7  ED 80 1E SBC t1_start_tick_hi
10BA  C9 00    CMP #$00
10BC  90 09    BCC @not_elapsed
10BE  D0 05    BNE @elapsed
10C0  98       TYA
10C1  C9 64    CMP #$64
10C3  90 02    BCC @not_elapsed

@elapsed:
10C5  18       CLC
10C6  60       RTS

@not_elapsed:
10C7  38       SEC
10C8  60       RTS

t1_update_rate:
10C9  20 A9 10 JSR t1_tick_elapsed_1s
10CC  90 01    BCC L10CF
10CE  60       RTS

L10CF:
10CF  38       SEC
10D0  AD 7B 1E LDA t1_loop_lo
10D3  ED 7D 1E SBC t1_last_loop_lo
10D6  8D 83 1E STA t1_delta_loop_lo
10D9  AD 7C 1E LDA t1_loop_hi
10DC  ED 7E 1E SBC t1_last_loop_hi
10DF  8D 84 1E STA t1_delta_loop_hi
10E2  20 8D 10 JSR t1_reset_sample
10E5  60       RTS

t1_write_ping:
10E6  78       SEI
10E7  A2 BB    LDX #$BB
10E9  A0 1E    LDY #$1E
10EB  20 0C F1 JSR LF10C
10EE  90 02    BCC @ok
10F0  38       SEC
10F1  60       RTS

@ok:
10F2  C9 01    CMP #$01
10F4  F0 02    BEQ L10F8
10F6  38       SEC
10F7  60       RTS

L10F8:
10F8  E0 00    CPX #$00
10FA  F0 02    BEQ L10FE
10FC  38       SEC
10FD  60       RTS

L10FE:
10FE  18       CLC
10FF  60       RTS

t1_read_pong:
1100  78       SEI
1101  A2 C1    LDX #$C1
1103  A0 1E    LDY #$1E
1105  20 09 F1 JSR LF109
1108  90 02    BCC @ok
110A  38       SEC
110B  60       RTS

@ok:
110C  C9 01    CMP #$01
110E  F0 02    BEQ L1112
1110  38       SEC
1111  60       RTS

L1112:
1112  E0 00    CPX #$00
1114  F0 02    BEQ L1118
1116  38       SEC
1117  60       RTS

L1118:
1118  AD 7A 1E LDA t1_rx_byte
111B  C9 51    CMP #$51
111D  F0 02    BEQ L1121
111F  38       SEC
1120  60       RTS

L1121:
1121  18       CLC
1122  60       RTS

t1_count_loop:
1123  EE 7B 1E INC t1_loop_lo
1126  D0 03    BNE @check_sample
1128  EE 7C 1E INC t1_loop_hi

@check_sample:
112B  AD 7B 1E LDA t1_loop_lo
112E  29 0F    AND #$0F
1130  D0 03    BNE @done
1132  20 C9 10 JSR t1_update_rate

@done:
1135  60       RTS

user_task1_entry:
1136  20 36 10 JSR t1_print_start
1139  9C 7B 1E STZ t1_loop_lo
113C  9C 7C 1E STZ t1_loop_hi
113F  9C 7D 1E STZ t1_last_loop_lo
1142  9C 7E 1E STZ t1_last_loop_hi
1145  9C 83 1E STZ t1_delta_loop_lo
1148  9C 84 1E STZ t1_delta_loop_hi
114B  20 8D 10 JSR t1_reset_sample

@loop:
114E  20 E6 10 JSR t1_write_ping
1151  90 03    BCC L1156
1153  4C 68 11 JMP @fail

L1156:
1156  20 00 11 JSR t1_read_pong
1159  90 03    BCC L115E
115B  4C 68 11 JMP @fail

L115E:
115E  20 23 11 JSR t1_count_loop
1161  A9 01    LDA #$01
1163  20 2A F1 JSR LF12A
1166  80 E6    BRA @loop

@fail:
1168  20 3F 10 JSR t1_print_fail

@idle:
116B  A9 10    LDA #$10
116D  20 2A F1 JSR LF12A
1170  80 F9    BRA @idle

t2_print_msg:
1172  8D F0 1E STA $1EF0
1175  8E F1 1E STX $1EF1
1178  98       TYA
1179  8D F2 1E STA $1EF2
117C  9C F3 1E STZ $1EF3
117F  78       SEI
1180  A2 EE    LDX #$EE
1182  A0 1E    LDY #$1E
1184  20 0C F1 JSR LF10C
1187  60       RTS

t2_print_start:
1188  A9 C9    LDA #$C9
118A  A2 1E    LDX #$1E
118C  A0 12    LDY #$12
118E  4C 72 11 JMP t2_print_msg

t2_print_fail:
1191  A9 DB    LDA #$DB
1193  A2 1E    LDX #$1E
1195  A0 13    LDY #$13
1197  4C 72 11 JMP t2_print_msg

t2_read_ping:
119A  78       SEI
119B  A2 F4    LDX #$F4
119D  A0 1E    LDY #$1E
119F  20 09 F1 JSR LF109
11A2  90 07    BCC @ok
11A4  A9 52    LDA #$52
11A6  8D EC 1E STA t2_fail_code
11A9  38       SEC
11AA  60       RTS

@ok:
11AB  C9 01    CMP #$01
11AD  F0 07    BEQ L11B6
11AF  A9 41    LDA #$41
11B1  8D EC 1E STA t2_fail_code
11B4  38       SEC
11B5  60       RTS

L11B6:
11B6  E0 00    CPX #$00
11B8  F0 07    BEQ L11C1
11BA  A9 58    LDA #$58
11BC  8D EC 1E STA t2_fail_code
11BF  38       SEC
11C0  60       RTS

L11C1:
11C1  AD C8 1E LDA t2_rx_byte
11C4  C9 50    CMP #$50
11C6  F0 07    BEQ L11CF
11C8  A9 42    LDA #$42
11CA  8D EC 1E STA t2_fail_code
11CD  38       SEC
11CE  60       RTS

L11CF:
11CF  18       CLC
11D0  60       RTS

t2_write_pong:
11D1  78       SEI
11D2  A2 FA    LDX #$FA
11D4  A0 1E    LDY #$1E
11D6  20 0C F1 JSR LF10C
11D9  90 07    BCC @ok
11DB  A9 57    LDA #$57
11DD  8D EC 1E STA t2_fail_code
11E0  38       SEC
11E1  60       RTS

@ok:
11E2  C9 01    CMP #$01
11E4  F0 07    BEQ L11ED
11E6  A9 43    LDA #$43
11E8  8D EC 1E STA t2_fail_code
11EB  38       SEC
11EC  60       RTS

L11ED:
11ED  E0 00    CPX #$00
11EF  F0 07    BEQ L11F8
11F1  A9 48    LDA #$48
11F3  8D EC 1E STA t2_fail_code
11F6  38       SEC
11F7  60       RTS

L11F8:
11F8  18       CLC
11F9  60       RTS

user_task2_entry:
11FA  20 88 11 JSR t2_print_start

@loop:
11FD  20 9A 11 JSR t2_read_ping
1200  90 03    BCC L1205
1202  4C 14 12 JMP @fail

L1205:
1205  20 D1 11 JSR t2_write_pong
1208  90 03    BCC L120D
120A  4C 14 12 JMP @fail

L120D:
120D  A9 01    LDA #$01
120F  20 2A F1 JSR LF12A
1212  80 E9    BRA @loop

@fail:
1214  20 91 11 JSR t2_print_fail

@idle:
1217  A9 10    LDA #$10
1219  20 2A F1 JSR LF12A
121C  80 F9    BRA @idle

t3_read_char:
121E  78       SEI
121F  A2 01    LDX #$01
1221  A0 1F    LDY #$1F
1223  20 09 F1 JSR LF109
1226  90 02    BCC @ok
1228  38       SEC
1229  60       RTS

@ok:
122A  C9 01    CMP #$01
122C  D0 06    BNE @bad_count
122E  E0 00    CPX #$00
1230  D0 02    BNE @bad_count
1232  18       CLC
1233  60       RTS

@bad_count:
1234  38       SEC
1235  60       RTS

t3_write_char:
1236  78       SEI
1237  A2 07    LDX #$07
1239  A0 1F    LDY #$1F
123B  20 0C F1 JSR LF10C
123E  90 02    BCC @ok
1240  38       SEC
1241  60       RTS

@ok:
1242  C9 01    CMP #$01
1244  D0 06    BNE @bad_count
1246  E0 00    CPX #$00
1248  D0 02    BNE @bad_count
124A  18       CLC
124B  60       RTS

@bad_count:
124C  38       SEC
124D  60       RTS

user_task3_entry:
124E  20 1E 12 JSR t3_read_char
1251  B0 0C    BCS @exit
1253  20 36 12 JSR t3_write_char
1256  B0 07    BCS @exit
1258  AD 00 1F LDA t3_byte
125B  C9 51    CMP #$51
125D  D0 EF    BNE user_task3_entry

@exit:
125F  4C 00 F1 JMP LF100

t4_print_msg:
1262  8D 97 1F STA $1F97
1265  8E 98 1F STX $1F98
1268  98       TYA
1269  8D 99 1F STA $1F99
126C  9C 9A 1F STZ $1F9A
126F  78       SEI
1270  A2 95    LDX #$95
1272  A0 1F    LDY #$1F
1274  20 0C F1 JSR LF10C
1277  60       RTS

t4_print_start:
1278  A9 57    LDA #$57
127A  A2 1F    LDX #$1F
127C  A0 0C    LDY #$0C
127E  4C 62 12 JMP t4_print_msg

t4_print_open_fail:
1281  A9 63    LDA #$63
1283  A2 1F    LDX #$1F
1285  A0 0D    LDY #$0D
1287  4C 62 12 JMP t4_print_msg

t4_print_read_fail:
128A  A9 70    LDA #$70
128C  A2 1F    LDX #$1F
128E  A0 0D    LDY #$0D
1290  4C 62 12 JMP t4_print_msg

t4_print_write_fail:
1293  A9 7D    LDA #$7D
1295  A2 1F    LDX #$1F
1297  A0 0E    LDY #$0E
1299  4C 62 12 JMP t4_print_msg

t4_print_empty:
129C  A9 8B    LDA #$8B
129E  A2 1F    LDX #$1F
12A0  A0 09    LDY #$09
12A2  4C 62 12 JMP t4_print_msg

t4_close_file:
12A5  AD 56 1F LDA t4_file_fd
12A8  C9 FF    CMP #$FF
12AA  F0 0A    BEQ @done
12AC  48       PHA
12AD  A9 FF    LDA #$FF
12AF  8D 56 1F STA t4_file_fd
12B2  68       PLA
12B3  20 06 F1 JSR LF106

@done:
12B6  60       RTS

t4_open_file:
12B7  78       SEI
12B8  A2 9B    LDX #$9B
12BA  A0 1F    LDY #$1F
12BC  20 03 F1 JSR LF103
12BF  90 02    BCC @ok
12C1  38       SEC
12C2  60       RTS

@ok:
12C3  8D 56 1F STA t4_file_fd
12C6  8D A1 1F STA t4_read_args
12C9  18       CLC
12CA  60       RTS

t4_read_file:
12CB  78       SEI
12CC  A2 A1    LDX #$A1
12CE  A0 1F    LDY #$1F
12D0  20 09 F1 JSR LF109
12D3  60       RTS

t4_write_file_text:
12D4  8D 99 1F STA $1F99
12D7  8E 9A 1F STX $1F9A
12DA  0D 9A 1F ORA $1F9A
12DD  D0 05    BNE @non_empty
12DF  20 9C 12 JSR t4_print_empty
12E2  18       CLC
12E3  60       RTS

@non_empty:
12E4  A9 16    LDA #$16
12E6  8D 97 1F STA $1F97
12E9  A9 1F    LDA #$1F
12EB  8D 98 1F STA $1F98
12EE  78       SEI
12EF  A2 95    LDX #$95
12F1  A0 1F    LDY #$1F
12F3  20 0C F1 JSR LF10C
12F6  B0 15    BCS @fail
12F8  CD 99 1F CMP $1F99
12FB  D0 10    BNE @fail
12FD  EC 9A 1F CPX $1F9A
1300  D0 0B    BNE @fail
1302  A9 94    LDA #$94
1304  A2 1F    LDX #$1F
1306  A0 01    LDY #$01
1308  20 62 12 JSR t4_print_msg
130B  18       CLC
130C  60       RTS

@fail:
130D  38       SEC
130E  60       RTS

user_task4_entry:
130F  20 78 12 JSR t4_print_start
1312  20 B7 12 JSR t4_open_file
1315  90 06    BCC L131D
1317  20 81 12 JSR t4_print_open_fail
131A  4C 36 13 JMP @exit

L131D:
131D  20 CB 12 JSR t4_read_file
1320  90 09    BCC L132B
1322  20 8A 12 JSR t4_print_read_fail
1325  20 A5 12 JSR t4_close_file
1328  4C 36 13 JMP @exit

L132B:
132B  20 D4 12 JSR t4_write_file_text
132E  90 03    BCC L1333
1330  20 93 12 JSR t4_print_write_fail

L1333:
1333  20 A5 12 JSR t4_close_file

@exit:
1336  4C 00 F1 JMP LF100

user_task5_disabled_entry:
1339  A9 00    LDA #$00
133B  4C 00 F1 JMP LF100

t5_print_msg:
133E  8D 93 22 STA $2293
1341  8E 94 22 STX $2294
1344  98       TYA
1345  8D 95 22 STA $2295
1348  9C 96 22 STZ $2296
134B  78       SEI
134C  A2 91    LDX #$91
134E  A0 22    LDY #$22
1350  20 0C F1 JSR LF10C
1353  60       RTS

t5_print_start:
1354  A9 E2    LDA #$E2
1356  A2 20    LDX #$20
1358  A0 0D    LDY #$0D
135A  4C 3E 13 JMP t5_print_msg

t5_print_bulk_fail:
135D  A9 EF    LDA #$EF
135F  A2 20    LDX #$20
1361  A0 0D    LDY #$0D
1363  4C 3E 13 JMP t5_print_msg

t5_print_bulk_ok:
1366  A9 FC    LDA #$FC
1368  A2 20    LDX #$20
136A  A0 0B    LDY #$0B
136C  4C 3E 13 JMP t5_print_msg

t5_print_trunc_fail:
136F  A9 07    LDA #$07
1371  A2 21    LDX #$21
1373  A0 0E    LDY #$0E
1375  4C 3E 13 JMP t5_print_msg

t5_print_wexist_fail:
1378  A9 15    LDA #$15
137A  A2 21    LDX #$21
137C  A0 0F    LDY #$0F
137E  4C 3E 13 JMP t5_print_msg

t5_print_rwexist_fail:
1381  A9 24    LDA #$24
1383  A2 21    LDX #$21
1385  A0 10    LDY #$10
1387  4C 3E 13 JMP t5_print_msg

t5_print_rwcreate_fail:
138A  A9 34    LDA #$34
138C  A2 21    LDX #$21
138E  A0 11    LDY #$11
1390  4C 3E 13 JMP t5_print_msg

t5_print_verify_fail:
1393  A9 45    LDA #$45
1395  A2 21    LDX #$21
1397  A0 0F    LDY #$0F
1399  4C 3E 13 JMP t5_print_msg

t5_print_seek_fail:
139C  A9 54    LDA #$54
139E  A2 21    LDX #$21
13A0  A0 0D    LDY #$0D
13A2  4C 3E 13 JMP t5_print_msg

t5_print_tell_fail:
13A5  A9 61    LDA #$61
13A7  A2 21    LDX #$21
13A9  A0 0D    LDY #$0D
13AB  4C 3E 13 JMP t5_print_msg

t5_print_v33_verify_fail:
13AE  A9 6E    LDA #$6E
13B0  A2 21    LDX #$21
13B2  A0 13    LDY #$13
13B4  4C 3E 13 JMP t5_print_msg

t5_print_v32_ok:
13B7  A9 55    LDA #$55
13B9  A2 22    LDX #$22
13BB  A0 0A    LDY #$0A
13BD  4C 3E 13 JMP t5_print_msg

t5_print_v33_ok:
13C0  A9 5F    LDA #$5F
13C2  A2 22    LDX #$22
13C4  A0 0A    LDY #$0A
13C6  4C 3E 13 JMP t5_print_msg

t5_print_delete_fail:
13C9  A9 81    LDA #$81
13CB  A2 21    LDX #$21
13CD  A0 0F    LDY #$0F
13CF  4C 3E 13 JMP t5_print_msg

t5_print_rename_fail:
13D2  A9 90    LDA #$90
13D4  A2 21    LDX #$21
13D6  A0 0F    LDY #$0F
13D8  4C 3E 13 JMP t5_print_msg

t5_print_v34_verify_fail:
13DB  A9 9F    LDA #$9F
13DD  A2 21    LDX #$21
13DF  A0 13    LDY #$13
13E1  4C 3E 13 JMP t5_print_msg

t5_print_v34_ok:
13E4  A9 69    LDA #$69
13E6  A2 22    LDX #$22
13E8  A0 0A    LDY #$0A
13EA  4C 3E 13 JMP t5_print_msg

t5_print_opendir_fail:
13ED  A9 B2    LDA #$B2
13EF  A2 21    LDX #$21
13F1  A0 10    LDY #$10
13F3  4C 3E 13 JMP t5_print_msg

t5_print_readdir_fail:
13F6  A9 C2    LDA #$C2
13F8  A2 21    LDX #$21
13FA  A0 10    LDY #$10
13FC  4C 3E 13 JMP t5_print_msg

t5_print_closedir_fail:
13FF  A9 D2    LDA #$D2
1401  A2 21    LDX #$21
1403  A0 11    LDY #$11
1405  4C 3E 13 JMP t5_print_msg

t5_print_v35_verify_fail:
1408  A9 E3    LDA #$E3
140A  A2 21    LDX #$21
140C  A0 13    LDY #$13
140E  4C 3E 13 JMP t5_print_msg

t5_print_v35_ok:
1411  A9 73    LDA #$73
1413  A2 22    LDX #$22
1415  A0 0A    LDY #$0A
1417  4C 3E 13 JMP t5_print_msg

t5_print_chdir_fail:
141A  A9 F6    LDA #$F6
141C  A2 21    LDX #$21
141E  A0 0F    LDY #$0F
1420  4C 3E 13 JMP t5_print_msg

t5_print_getcwd_fail:
1423  A9 04    LDA #$04
1425  A2 22    LDX #$22
1427  A0 10    LDY #$10
1429  4C 3E 13 JMP t5_print_msg

t5_print_v36_verify_fail:
142C  A9 13    LDA #$13
142E  A2 22    LDX #$22
1430  A0 13    LDY #$13
1432  4C 3E 13 JMP t5_print_msg

t5_print_v36_ok:
1435  A9 7D    LDA #$7D
1437  A2 22    LDX #$22
1439  A0 0A    LDY #$0A
143B  4C 3E 13 JMP t5_print_msg

t5_print_mkdir_fail:
143E  A9 26    LDA #$26
1440  A2 22    LDX #$22
1442  A0 0E    LDY #$0E
1444  4C 3E 13 JMP t5_print_msg

t5_print_rmdir_fail:
1447  A9 34    LDA #$34
1449  A2 22    LDX #$22
144B  A0 0E    LDY #$0E
144D  4C 3E 13 JMP t5_print_msg

t5_print_v37_verify_fail:
1450  A9 42    LDA #$42
1452  A2 22    LDX #$22
1454  A0 13    LDY #$13
1456  4C 3E 13 JMP t5_print_msg

t5_print_v37_ok:
1459  A9 87    LDA #$87
145B  A2 22    LDX #$22
145D  A0 0A    LDY #$0A
145F  4C 3E 13 JMP t5_print_msg

t5_close_file:
1462  AD BD 20 LDA t5_file_fd
1465  C9 FF    CMP #$FF
1467  F0 13    BEQ @done
1469  48       PHA
146A  A9 FF    LDA #$FF
146C  8D BD 20 STA t5_file_fd
146F  8D 97 22 STA t5_file_rw_args
1472  8D A3 22 STA t5_seek_args
1475  8D AD 22 STA t5_tell_args
1478  68       PLA
1479  20 06 F1 JSR LF106

@done:
147C  60       RTS

t5_closedir_fd1:
147D  AD BE 20 LDA t5_dir_fd1
1480  C9 FF    CMP #$FF
1482  F0 10    BEQ @done
1484  8D F1 22 STA t5_closedir_args
1487  A9 FF    LDA #$FF
1489  8D BE 20 STA t5_dir_fd1
148C  78       SEI
148D  A2 F1    LDX #$F1
148F  A0 22    LDY #$22
1491  20 3F F1 JSR LF13F

@done:
1494  60       RTS

t5_closedir_fd2:
1495  AD BF 20 LDA t5_dir_fd2
1498  C9 FF    CMP #$FF
149A  F0 10    BEQ @done
149C  8D F1 22 STA t5_closedir_args
149F  A9 FF    LDA #$FF
14A1  8D BF 20 STA t5_dir_fd2
14A4  78       SEI
14A5  A2 F1    LDX #$F1
14A7  A0 22    LDY #$22
14A9  20 3F F1 JSR LF13F

@done:
14AC  60       RTS

t5_close_dirs:
14AD  20 7D 14 JSR t5_closedir_fd1
14B0  20 95 14 JSR t5_closedir_fd2
14B3  60       RTS

t5_attach_fd:
14B4  8D BD 20 STA t5_file_fd
14B7  8D 97 22 STA t5_file_rw_args
14BA  8D A3 22 STA t5_seek_args
14BD  8D AD 22 STA t5_tell_args
14C0  60       RTS

t5_open_path_common:
14C1  8D A1 22 STA $22A1
14C4  78       SEI
14C5  A2 9D    LDX #$9D
14C7  A0 22    LDY #$22
14C9  20 03 F1 JSR LF103
14CC  B0 05    BCS @fail
14CE  20 B4 14 JSR t5_attach_fd
14D1  18       CLC
14D2  60       RTS

@fail:
14D3  38       SEC
14D4  60       RTS

t5_open_v32_path:
14D5  48       PHA
14D6  A9 B4    LDA #$B4
14D8  8D 9D 22 STA t5_open_args
14DB  A9 1F    LDA #$1F
14DD  8D 9E 22 STA $229E
14E0  68       PLA
14E1  4C C1 14 JMP t5_open_path_common

t5_open_v32_new_path:
14E4  48       PHA
14E5  A9 C0    LDA #$C0
14E7  8D 9D 22 STA t5_open_args
14EA  A9 1F    LDA #$1F
14EC  8D 9E 22 STA $229E
14EF  68       PLA
14F0  4C C1 14 JMP t5_open_path_common

t5_open_v33_path:
14F3  48       PHA
14F4  A9 CB    LDA #$CB
14F6  8D 9D 22 STA t5_open_args
14F9  A9 1F    LDA #$1F
14FB  8D 9E 22 STA $229E
14FE  68       PLA
14FF  4C C1 14 JMP t5_open_path_common

t5_open_v34_path:
1502  48       PHA
1503  A9 D7    LDA #$D7
1505  8D 9D 22 STA t5_open_args
1508  A9 1F    LDA #$1F
150A  8D 9E 22 STA $229E
150D  68       PLA
150E  4C C1 14 JMP t5_open_path_common

t5_open_v34_renamed_path:
1511  48       PHA
1512  A9 E3    LDA #$E3
1514  8D 9D 22 STA t5_open_args
1517  A9 1F    LDA #$1F
1519  8D 9E 22 STA $229E
151C  68       PLA
151D  4C C1 14 JMP t5_open_path_common

t5_open_dot_bulk_path:
1520  48       PHA
1521  A9 F6    LDA #$F6
1523  8D 9D 22 STA t5_open_args
1526  A9 1F    LDA #$1F
1528  8D 9E 22 STA $229E
152B  68       PLA
152C  4C C1 14 JMP t5_open_path_common

t5_open_v37_file_path:
152F  48       PHA
1530  A9 0C    LDA #$0C
1532  8D 9D 22 STA t5_open_args
1535  A9 20    LDA #$20
1537  8D 9E 22 STA $229E
153A  68       PLA
153B  4C C1 14 JMP t5_open_path_common

t5_open_v37_rel_file_path:
153E  48       PHA
153F  A9 19    LDA #$19
1541  8D 9D 22 STA t5_open_args
1544  A9 20    LDA #$20
1546  8D 9E 22 STA $229E
1549  68       PLA
154A  4C C1 14 JMP t5_open_path_common

t5_file_write:
154D  8D 99 22 STA $2299
1550  8E 9A 22 STX $229A
1553  98       TYA
1554  8D 9B 22 STA $229B
1557  9C 9C 22 STZ $229C
155A  78       SEI
155B  A2 97    LDX #$97
155D  A0 22    LDY #$22
155F  20 0C F1 JSR LF10C
1562  B0 0C    BCS @fail
1564  CD 9B 22 CMP $229B
1567  D0 07    BNE @fail
1569  EC 9C 22 CPX $229C
156C  D0 02    BNE @fail
156E  18       CLC
156F  60       RTS

@fail:
1570  38       SEC
1571  60       RTS

t5_file_read:
1572  A9 AD    LDA #$AD
1574  8D 99 22 STA $2299
1577  A9 20    LDA #$20
1579  8D 9A 22 STA $229A
157C  98       TYA
157D  8D 9B 22 STA $229B
1580  9C 9C 22 STZ $229C
1583  78       SEI
1584  A2 97    LDX #$97
1586  A0 22    LDY #$22
1588  20 09 F1 JSR LF109
158B  60       RTS

t5_read_v32_path:
158C  5A       PHY
158D  A9 00    LDA #$00
158F  20 D5 14 JSR t5_open_v32_path
1592  90 03    BCC L1597
1594  7A       PLY
1595  38       SEC
1596  60       RTS

L1597:
1597  7A       PLY
1598  20 72 15 JSR t5_file_read
159B  08       PHP
159C  48       PHA
159D  DA       PHX
159E  20 62 14 JSR t5_close_file
15A1  FA       PLX
15A2  68       PLA
15A3  28       PLP
15A4  60       RTS

t5_read_v32_new_path:
15A5  5A       PHY
15A6  A9 00    LDA #$00
15A8  20 E4 14 JSR t5_open_v32_new_path
15AB  90 03    BCC L15B0
15AD  7A       PLY
15AE  38       SEC
15AF  60       RTS

L15B0:
15B0  7A       PLY
15B1  20 72 15 JSR t5_file_read
15B4  08       PHP
15B5  48       PHA
15B6  DA       PHX
15B7  20 62 14 JSR t5_close_file
15BA  FA       PLX
15BB  68       PLA
15BC  28       PLP
15BD  60       RTS

t5_read_v33_path:
15BE  5A       PHY
15BF  A9 00    LDA #$00
15C1  20 F3 14 JSR t5_open_v33_path
15C4  90 03    BCC L15C9
15C6  7A       PLY
15C7  38       SEC
15C8  60       RTS

L15C9:
15C9  7A       PLY
15CA  20 72 15 JSR t5_file_read
15CD  08       PHP
15CE  48       PHA
15CF  DA       PHX
15D0  20 62 14 JSR t5_close_file
15D3  FA       PLX
15D4  68       PLA
15D5  28       PLP
15D6  60       RTS

t5_read_v34_renamed_path:
15D7  5A       PHY
15D8  A9 00    LDA #$00
15DA  20 11 15 JSR t5_open_v34_renamed_path
15DD  90 03    BCC L15E2
15DF  7A       PLY
15E0  38       SEC
15E1  60       RTS

L15E2:
15E2  7A       PLY
15E3  20 72 15 JSR t5_file_read
15E6  08       PHP
15E7  48       PHA
15E8  DA       PHX
15E9  20 62 14 JSR t5_close_file
15EC  FA       PLX
15ED  68       PLA
15EE  28       PLP
15EF  60       RTS

t5_check_pos:
15F0  CD E0 20 CMP t5_expected_pos_lo
15F3  D0 21    BNE @fail
15F5  EC E1 20 CPX t5_expected_pos_hi
15F8  D0 1C    BNE @fail
15FA  AD A9 22 LDA $22A9
15FD  CD E0 20 CMP t5_expected_pos_lo
1600  D0 14    BNE @fail
1602  AD AA 22 LDA $22AA
1605  CD E1 20 CMP t5_expected_pos_hi
1608  D0 0C    BNE @fail
160A  AD AB 22 LDA $22AB
160D  D0 07    BNE @fail
160F  AD AC 22 LDA $22AC
1612  D0 02    BNE @fail
1614  18       CLC
1615  60       RTS

@fail:
1616  38       SEC
1617  60       RTS

t5_check_tell_pos:
1618  CD E0 20 CMP t5_expected_pos_lo
161B  D0 21    BNE @fail
161D  EC E1 20 CPX t5_expected_pos_hi
1620  D0 1C    BNE @fail
1622  AD AF 22 LDA $22AF
1625  CD E0 20 CMP t5_expected_pos_lo
1628  D0 14    BNE @fail
162A  AD B0 22 LDA $22B0
162D  CD E1 20 CMP t5_expected_pos_hi
1630  D0 0C    BNE @fail
1632  AD B1 22 LDA $22B1
1635  D0 07    BNE @fail
1637  AD B2 22 LDA $22B2
163A  D0 02    BNE @fail
163C  18       CLC
163D  60       RTS

@fail:
163E  38       SEC
163F  60       RTS

t5_seek_file:
1640  A9 00    LDA #$00
1642  8D A9 22 STA $22A9
1645  8D AA 22 STA $22AA
1648  8D AB 22 STA $22AB
164B  8D AC 22 STA $22AC
164E  78       SEI
164F  A2 A3    LDX #$A3
1651  A0 22    LDY #$22
1653  20 18 F1 JSR LF118
1656  B0 04    BCS @fail
1658  20 F0 15 JSR t5_check_pos
165B  60       RTS

@fail:
165C  38       SEC
165D  60       RTS

t5_tell_file:
165E  A9 00    LDA #$00
1660  8D AF 22 STA $22AF
1663  8D B0 22 STA $22B0
1666  8D B1 22 STA $22B1
1669  8D B2 22 STA $22B2
166C  78       SEI
166D  A2 AD    LDX #$AD
166F  A0 22    LDY #$22
1671  20 1B F1 JSR LF11B
1674  B0 04    BCS @fail
1676  20 18 16 JSR t5_check_tell_pos
1679  60       RTS

@fail:
167A  38       SEC
167B  60       RTS

t5_prepare_seek:
167C  8D A4 22 STA $22A4
167F  9C A5 22 STZ $22A5
1682  9C A6 22 STZ $22A6
1685  9C A7 22 STZ $22A7
1688  9C A8 22 STZ $22A8
168B  9C E0 20 STZ t5_expected_pos_lo
168E  9C E1 20 STZ t5_expected_pos_hi
1691  60       RTS

t5_seek_end_0_expect5:
1692  A9 02    LDA #$02
1694  20 7C 16 JSR t5_prepare_seek
1697  A9 05    LDA #$05
1699  8D E0 20 STA t5_expected_pos_lo
169C  4C 40 16 JMP t5_seek_file

t5_seek_end_minus2_expect4:
169F  A9 02    LDA #$02
16A1  20 7C 16 JSR t5_prepare_seek
16A4  A9 FE    LDA #$FE
16A6  8D A5 22 STA $22A5
16A9  A9 FF    LDA #$FF
16AB  8D A6 22 STA $22A6
16AE  8D A7 22 STA $22A7
16B1  8D A8 22 STA $22A8
16B4  A9 04    LDA #$04
16B6  8D E0 20 STA t5_expected_pos_lo
16B9  4C 40 16 JMP t5_seek_file

t5_seek_set_1_expect1:
16BC  A9 00    LDA #$00
16BE  20 7C 16 JSR t5_prepare_seek
16C1  A9 01    LDA #$01
16C3  8D A5 22 STA $22A5
16C6  8D E0 20 STA t5_expected_pos_lo
16C9  4C 40 16 JMP t5_seek_file

t5_seek_cur_2_expect3:
16CC  A9 01    LDA #$01
16CE  20 7C 16 JSR t5_prepare_seek
16D1  A9 02    LDA #$02
16D3  8D A5 22 STA $22A5
16D6  A9 03    LDA #$03
16D8  8D E0 20 STA t5_expected_pos_lo
16DB  4C 40 16 JMP t5_seek_file

t5_tell_expect0:
16DE  9C E0 20 STZ t5_expected_pos_lo
16E1  9C E1 20 STZ t5_expected_pos_hi
16E4  4C 5E 16 JMP t5_tell_file

t5_verify_xycde:
16E7  A0 00    LDY #$00

@loop:
16E9  B9 AD 20 LDA t5_read_buf,Y
16EC  D9 49 20 CMP t5_expect_xycde,Y
16EF  D0 07    BNE @fail
16F1  C8       INY
16F2  C0 05    CPY #$05
16F4  D0 F3    BNE @loop
16F6  18       CLC
16F7  60       RTS

@fail:
16F8  38       SEC
16F9  60       RTS

t5_verify_xzcde:
16FA  A0 00    LDY #$00

@loop:
16FC  B9 AD 20 LDA t5_read_buf,Y
16FF  D9 4E 20 CMP t5_expect_xzcde,Y
1702  D0 07    BNE @fail
1704  C8       INY
1705  C0 05    CPY #$05
1707  D0 F3    BNE @loop
1709  18       CLC
170A  60       RTS

@fail:
170B  38       SEC
170C  60       RTS

t5_verify_new:
170D  A0 00    LDY #$00

@loop:
170F  B9 AD 20 LDA t5_read_buf,Y
1712  D9 53 20 CMP t5_expect_new,Y
1715  D0 07    BNE @fail
1717  C8       INY
1718  C0 03    CPY #$03
171A  D0 F3    BNE @loop
171C  18       CLC
171D  60       RTS

@fail:
171E  38       SEC
171F  60       RTS

t5_verify_abcde:
1720  A0 00    LDY #$00

@loop:
1722  B9 AD 20 LDA t5_read_buf,Y
1725  D9 56 20 CMP t5_expect_abcde,Y
1728  D0 07    BNE @fail
172A  C8       INY
172B  C0 05    CPY #$05
172D  D0 F3    BNE @loop
172F  18       CLC
1730  60       RTS

@fail:
1731  38       SEC
1732  60       RTS

t5_verify_abcde_bang:
1733  A0 00    LDY #$00

@loop:
1735  B9 AD 20 LDA t5_read_buf,Y
1738  D9 5B 20 CMP t5_expect_abcde_bang,Y
173B  D0 07    BNE @fail
173D  C8       INY
173E  C0 06    CPY #$06
1740  D0 F3    BNE @loop
1742  18       CLC
1743  60       RTS

@fail:
1744  38       SEC
1745  60       RTS

t5_verify_abcdq_bang:
1746  A0 00    LDY #$00

@loop:
1748  B9 AD 20 LDA t5_read_buf,Y
174B  D9 61 20 CMP t5_expect_abcdq_bang,Y
174E  D0 07    BNE @fail
1750  C8       INY
1751  C0 06    CPY #$06
1753  D0 F3    BNE @loop
1755  18       CLC
1756  60       RTS

@fail:
1757  38       SEC
1758  60       RTS

t5_verify_abcrq_bang:
1759  A0 00    LDY #$00

@loop:
175B  B9 AD 20 LDA t5_read_buf,Y
175E  D9 67 20 CMP t5_expect_abcrq_bang,Y
1761  D0 07    BNE @fail
1763  C8       INY
1764  C0 06    CPY #$06
1766  D0 F3    BNE @loop
1768  18       CLC
1769  60       RTS

@fail:
176A  38       SEC
176B  60       RTS

t5_run_bulk_v31:
176C  78       SEI
176D  A2 0D    LDX #$0D
176F  A0 23    LDY #$23
1771  20 15 F1 JSR LF115
1774  B0 1C    BCS @fail
1776  C9 12    CMP #$12
1778  D0 18    BNE @fail
177A  E0 00    CPX #$00
177C  D0 14    BNE @fail
177E  78       SEI
177F  A2 15    LDX #$15
1781  A0 23    LDY #$23
1783  20 12 F1 JSR LF112
1786  B0 0A    BCS @fail
1788  C9 12    CMP #$12
178A  D0 06    BNE @fail
178C  E0 00    CPX #$00
178E  D0 02    BNE @fail
1790  18       CLC
1791  60       RTS

@fail:
1792  38       SEC
1793  60       RTS

t5_run_v32_open_modes:
1794  A9 01    LDA #$01
1796  20 D5 14 JSR t5_open_v32_path
1799  90 05    BCC L17A0
179B  20 6F 13 JSR t5_print_trunc_fail
179E  38       SEC
179F  60       RTS

L17A0:
17A0  A9 3B    LDA #$3B
17A2  A2 20    LDX #$20
17A4  A0 05    LDY #$05
17A6  20 4D 15 JSR t5_file_write
17A9  08       PHP
17AA  20 62 14 JSR t5_close_file
17AD  28       PLP
17AE  90 05    BCC L17B5
17B0  20 6F 13 JSR t5_print_trunc_fail
17B3  38       SEC
17B4  60       RTS

L17B5:
17B5  A9 02    LDA #$02
17B7  20 D5 14 JSR t5_open_v32_path
17BA  90 05    BCC L17C1
17BC  20 78 13 JSR t5_print_wexist_fail
17BF  38       SEC
17C0  60       RTS

L17C1:
17C1  A9 40    LDA #$40
17C3  A2 20    LDX #$20
17C5  A0 02    LDY #$02
17C7  20 4D 15 JSR t5_file_write
17CA  08       PHP
17CB  20 62 14 JSR t5_close_file
17CE  28       PLP
17CF  90 05    BCC L17D6
17D1  20 78 13 JSR t5_print_wexist_fail
17D4  38       SEC
17D5  60       RTS

L17D6:
17D6  A0 05    LDY #$05
17D8  20 8C 15 JSR t5_read_v32_path
17DB  90 05    BCC L17E2
17DD  20 93 13 JSR t5_print_verify_fail
17E0  38       SEC
17E1  60       RTS

L17E2:
17E2  C9 05    CMP #$05
17E4  D0 09    BNE @verify_fail_xycde
17E6  E0 00    CPX #$00
17E8  D0 05    BNE @verify_fail_xycde
17EA  20 E7 16 JSR t5_verify_xycde
17ED  90 05    BCC L17F4

@verify_fail_xycde:
17EF  20 93 13 JSR t5_print_verify_fail
17F2  38       SEC
17F3  60       RTS

L17F4:
17F4  A9 03    LDA #$03
17F6  20 D5 14 JSR t5_open_v32_path
17F9  90 05    BCC L1800
17FB  20 81 13 JSR t5_print_rwexist_fail
17FE  38       SEC
17FF  60       RTS

L1800:
1800  A0 01    LDY #$01
1802  20 72 15 JSR t5_file_read
1805  90 08    BCC L180F
1807  20 62 14 JSR t5_close_file
180A  20 81 13 JSR t5_print_rwexist_fail
180D  38       SEC
180E  60       RTS

L180F:
180F  C9 01    CMP #$01
1811  D0 04    BNE @rwexist_read_count_fail
1813  E0 00    CPX #$00
1815  F0 08    BEQ L181F

@rwexist_read_count_fail:
1817  20 62 14 JSR t5_close_file
181A  20 81 13 JSR t5_print_rwexist_fail
181D  38       SEC
181E  60       RTS

L181F:
181F  A9 42    LDA #$42
1821  A2 20    LDX #$20
1823  A0 01    LDY #$01
1825  20 4D 15 JSR t5_file_write
1828  08       PHP
1829  20 62 14 JSR t5_close_file
182C  28       PLP
182D  90 05    BCC L1834
182F  20 81 13 JSR t5_print_rwexist_fail
1832  38       SEC
1833  60       RTS

L1834:
1834  A0 05    LDY #$05
1836  20 8C 15 JSR t5_read_v32_path
1839  90 05    BCC L1840
183B  20 93 13 JSR t5_print_verify_fail
183E  38       SEC
183F  60       RTS

L1840:
1840  C9 05    CMP #$05
1842  D0 09    BNE @verify_fail_xzcde
1844  E0 00    CPX #$00
1846  D0 05    BNE @verify_fail_xzcde
1848  20 FA 16 JSR t5_verify_xzcde
184B  90 05    BCC L1852

@verify_fail_xzcde:
184D  20 93 13 JSR t5_print_verify_fail
1850  38       SEC
1851  60       RTS

L1852:
1852  A9 04    LDA #$04
1854  20 E4 14 JSR t5_open_v32_new_path
1857  90 05    BCC L185E
1859  20 8A 13 JSR t5_print_rwcreate_fail
185C  38       SEC
185D  60       RTS

L185E:
185E  A9 43    LDA #$43
1860  A2 20    LDX #$20
1862  A0 03    LDY #$03
1864  20 4D 15 JSR t5_file_write
1867  08       PHP
1868  20 62 14 JSR t5_close_file
186B  28       PLP
186C  90 05    BCC L1873
186E  20 8A 13 JSR t5_print_rwcreate_fail
1871  38       SEC
1872  60       RTS

L1873:
1873  A0 03    LDY #$03
1875  20 A5 15 JSR t5_read_v32_new_path
1878  90 05    BCC L187F
187A  20 93 13 JSR t5_print_verify_fail
187D  38       SEC
187E  60       RTS

L187F:
187F  C9 03    CMP #$03
1881  D0 09    BNE @verify_fail_new
1883  E0 00    CPX #$00
1885  D0 05    BNE @verify_fail_new
1887  20 0D 17 JSR t5_verify_new
188A  90 05    BCC L1891

@verify_fail_new:
188C  20 93 13 JSR t5_print_verify_fail
188F  38       SEC
1890  60       RTS

L1891:
1891  18       CLC
1892  60       RTS

t5_run_v33_seek_tell:
1893  A9 01    LDA #$01
1895  20 F3 14 JSR t5_open_v33_path
1898  90 05    BCC L189F
189A  20 6F 13 JSR t5_print_trunc_fail
189D  38       SEC
189E  60       RTS

L189F:
189F  A9 3B    LDA #$3B
18A1  A2 20    LDX #$20
18A3  A0 05    LDY #$05
18A5  20 4D 15 JSR t5_file_write
18A8  08       PHP
18A9  20 62 14 JSR t5_close_file
18AC  28       PLP
18AD  90 05    BCC L18B4
18AF  20 6F 13 JSR t5_print_trunc_fail
18B2  38       SEC
18B3  60       RTS

L18B4:
18B4  A9 03    LDA #$03
18B6  20 F3 14 JSR t5_open_v33_path
18B9  90 05    BCC L18C0
18BB  20 81 13 JSR t5_print_rwexist_fail
18BE  38       SEC
18BF  60       RTS

L18C0:
18C0  20 DE 16 JSR t5_tell_expect0
18C3  90 08    BCC L18CD
18C5  20 62 14 JSR t5_close_file
18C8  20 A5 13 JSR t5_print_tell_fail
18CB  38       SEC
18CC  60       RTS

L18CD:
18CD  20 92 16 JSR t5_seek_end_0_expect5
18D0  90 08    BCC L18DA
18D2  20 62 14 JSR t5_close_file
18D5  20 9C 13 JSR t5_print_seek_fail
18D8  38       SEC
18D9  60       RTS

L18DA:
18DA  A9 46    LDA #$46
18DC  A2 20    LDX #$20
18DE  A0 01    LDY #$01
18E0  20 4D 15 JSR t5_file_write
18E3  08       PHP
18E4  20 62 14 JSR t5_close_file
18E7  28       PLP
18E8  90 05    BCC L18EF
18EA  20 81 13 JSR t5_print_rwexist_fail
18ED  38       SEC
18EE  60       RTS

L18EF:
18EF  A0 06    LDY #$06
18F1  20 BE 15 JSR t5_read_v33_path
18F4  90 05    BCC L18FB
18F6  20 AE 13 JSR t5_print_v33_verify_fail
18F9  38       SEC
18FA  60       RTS

L18FB:
18FB  C9 06    CMP #$06
18FD  D0 09    BNE @verify_fail_abcde_bang
18FF  E0 00    CPX #$00
1901  D0 05    BNE @verify_fail_abcde_bang
1903  20 33 17 JSR t5_verify_abcde_bang
1906  90 05    BCC L190D

@verify_fail_abcde_bang:
1908  20 AE 13 JSR t5_print_v33_verify_fail
190B  38       SEC
190C  60       RTS

L190D:
190D  A9 03    LDA #$03
190F  20 F3 14 JSR t5_open_v33_path
1912  90 05    BCC L1919
1914  20 81 13 JSR t5_print_rwexist_fail
1917  38       SEC
1918  60       RTS

L1919:
1919  20 9F 16 JSR t5_seek_end_minus2_expect4
191C  90 08    BCC L1926
191E  20 62 14 JSR t5_close_file
1921  20 9C 13 JSR t5_print_seek_fail
1924  38       SEC
1925  60       RTS

L1926:
1926  A9 47    LDA #$47
1928  A2 20    LDX #$20
192A  A0 01    LDY #$01
192C  20 4D 15 JSR t5_file_write
192F  08       PHP
1930  20 62 14 JSR t5_close_file
1933  28       PLP
1934  90 05    BCC L193B
1936  20 81 13 JSR t5_print_rwexist_fail
1939  38       SEC
193A  60       RTS

L193B:
193B  A0 06    LDY #$06
193D  20 BE 15 JSR t5_read_v33_path
1940  90 05    BCC L1947
1942  20 AE 13 JSR t5_print_v33_verify_fail
1945  38       SEC
1946  60       RTS

L1947:
1947  C9 06    CMP #$06
1949  D0 09    BNE @verify_fail_abcdq_bang
194B  E0 00    CPX #$00
194D  D0 05    BNE @verify_fail_abcdq_bang
194F  20 46 17 JSR t5_verify_abcdq_bang
1952  90 05    BCC L1959

@verify_fail_abcdq_bang:
1954  20 AE 13 JSR t5_print_v33_verify_fail
1957  38       SEC
1958  60       RTS

L1959:
1959  A9 03    LDA #$03
195B  20 F3 14 JSR t5_open_v33_path
195E  90 05    BCC L1965
1960  20 81 13 JSR t5_print_rwexist_fail
1963  38       SEC
1964  60       RTS

L1965:
1965  20 BC 16 JSR t5_seek_set_1_expect1
1968  90 08    BCC L1972
196A  20 62 14 JSR t5_close_file
196D  20 9C 13 JSR t5_print_seek_fail
1970  38       SEC
1971  60       RTS

L1972:
1972  20 CC 16 JSR t5_seek_cur_2_expect3
1975  90 08    BCC L197F
1977  20 62 14 JSR t5_close_file
197A  20 9C 13 JSR t5_print_seek_fail
197D  38       SEC
197E  60       RTS

L197F:
197F  A9 48    LDA #$48
1981  A2 20    LDX #$20
1983  A0 01    LDY #$01
1985  20 4D 15 JSR t5_file_write
1988  08       PHP
1989  20 62 14 JSR t5_close_file
198C  28       PLP
198D  90 05    BCC L1994
198F  20 81 13 JSR t5_print_rwexist_fail
1992  38       SEC
1993  60       RTS

L1994:
1994  A0 06    LDY #$06
1996  20 BE 15 JSR t5_read_v33_path
1999  90 05    BCC L19A0
199B  20 AE 13 JSR t5_print_v33_verify_fail
199E  38       SEC
199F  60       RTS

L19A0:
19A0  C9 06    CMP #$06
19A2  D0 09    BNE @verify_fail_abcrq_bang
19A4  E0 00    CPX #$00
19A6  D0 05    BNE @verify_fail_abcrq_bang
19A8  20 59 17 JSR t5_verify_abcrq_bang
19AB  90 05    BCC L19B2

@verify_fail_abcrq_bang:
19AD  20 AE 13 JSR t5_print_v33_verify_fail
19B0  38       SEC
19B1  60       RTS

L19B2:
19B2  18       CLC
19B3  60       RTS

t5_delete_v34_path:
19B4  A9 D7    LDA #$D7
19B6  8D B3 22 STA t5_delete_args
19B9  A9 1F    LDA #$1F
19BB  8D B4 22 STA $22B4
19BE  78       SEI
19BF  A2 B3    LDX #$B3
19C1  A0 22    LDY #$22
19C3  20 24 F1 JSR LF124
19C6  60       RTS

t5_delete_v34_renamed_path:
19C7  A9 E3    LDA #$E3
19C9  8D B3 22 STA t5_delete_args
19CC  A9 1F    LDA #$1F
19CE  8D B4 22 STA $22B4
19D1  78       SEI
19D2  A2 B3    LDX #$B3
19D4  A0 22    LDY #$22
19D6  20 24 F1 JSR LF124
19D9  60       RTS

t5_rename_v34_path:
19DA  A9 D7    LDA #$D7
19DC  8D B9 22 STA t5_rename_args
19DF  A9 1F    LDA #$1F
19E1  8D BA 22 STA $22BA
19E4  A9 E3    LDA #$E3
19E6  8D BB 22 STA $22BB
19E9  A9 1F    LDA #$1F
19EB  8D BC 22 STA $22BC
19EE  78       SEI
19EF  A2 B9    LDX #$B9
19F1  A0 22    LDY #$22
19F3  20 27 F1 JSR LF127
19F6  60       RTS

t5_run_v34_delete_rename:
19F7  20 B4 19 JSR t5_delete_v34_path
19FA  20 C7 19 JSR t5_delete_v34_renamed_path
19FD  A9 01    LDA #$01
19FF  20 02 15 JSR t5_open_v34_path
1A02  90 05    BCC L1A09
1A04  20 6F 13 JSR t5_print_trunc_fail
1A07  38       SEC
1A08  60       RTS

L1A09:
1A09  A9 3B    LDA #$3B
1A0B  A2 20    LDX #$20
1A0D  A0 05    LDY #$05
1A0F  20 4D 15 JSR t5_file_write
1A12  08       PHP
1A13  20 62 14 JSR t5_close_file
1A16  28       PLP
1A17  90 05    BCC L1A1E
1A19  20 6F 13 JSR t5_print_trunc_fail
1A1C  38       SEC
1A1D  60       RTS

L1A1E:
1A1E  20 DA 19 JSR t5_rename_v34_path
1A21  90 05    BCC L1A28
1A23  20 D2 13 JSR t5_print_rename_fail
1A26  38       SEC
1A27  60       RTS

L1A28:
1A28  A9 00    LDA #$00
1A2A  20 02 15 JSR t5_open_v34_path
1A2D  B0 08    BCS L1A37
1A2F  20 62 14 JSR t5_close_file
1A32  20 D2 13 JSR t5_print_rename_fail
1A35  38       SEC
1A36  60       RTS

L1A37:
1A37  A0 05    LDY #$05
1A39  20 D7 15 JSR t5_read_v34_renamed_path
1A3C  90 05    BCC L1A43
1A3E  20 DB 13 JSR t5_print_v34_verify_fail
1A41  38       SEC
1A42  60       RTS

L1A43:
1A43  C9 05    CMP #$05
1A45  D0 09    BNE @verify_fail_abcde
1A47  E0 00    CPX #$00
1A49  D0 05    BNE @verify_fail_abcde
1A4B  20 20 17 JSR t5_verify_abcde
1A4E  90 05    BCC L1A55

@verify_fail_abcde:
1A50  20 DB 13 JSR t5_print_v34_verify_fail
1A53  38       SEC
1A54  60       RTS

L1A55:
1A55  20 C7 19 JSR t5_delete_v34_renamed_path
1A58  90 05    BCC L1A5F
1A5A  20 C9 13 JSR t5_print_delete_fail
1A5D  38       SEC
1A5E  60       RTS

L1A5F:
1A5F  A9 00    LDA #$00
1A61  20 11 15 JSR t5_open_v34_renamed_path
1A64  B0 08    BCS L1A6E
1A66  20 62 14 JSR t5_close_file
1A69  20 C9 13 JSR t5_print_delete_fail
1A6C  38       SEC
1A6D  60       RTS

L1A6E:
1A6E  18       CLC
1A6F  60       RTS

t5_opendir_root_fd1:
1A70  A9 EE    LDA #$EE
1A72  8D E5 22 STA t5_opendir_args
1A75  A9 1F    LDA #$1F
1A77  8D E6 22 STA $22E6
1A7A  78       SEI
1A7B  A2 E5    LDX #$E5
1A7D  A0 22    LDY #$22
1A7F  20 39 F1 JSR LF139
1A82  B0 05    BCS @fail
1A84  8D BE 20 STA t5_dir_fd1
1A87  18       CLC
1A88  60       RTS

@fail:
1A89  38       SEC
1A8A  60       RTS

t5_opendir_root_fd2:
1A8B  A9 EE    LDA #$EE
1A8D  8D E5 22 STA t5_opendir_args
1A90  A9 1F    LDA #$1F
1A92  8D E6 22 STA $22E6
1A95  78       SEI
1A96  A2 E5    LDX #$E5
1A98  A0 22    LDY #$22
1A9A  20 39 F1 JSR LF139
1A9D  B0 05    BCS @fail
1A9F  8D BF 20 STA t5_dir_fd2
1AA2  18       CLC
1AA3  60       RTS

@fail:
1AA4  38       SEC
1AA5  60       RTS

t5_readdir_fd1:
1AA6  AD BE 20 LDA t5_dir_fd1
1AA9  8D EB 22 STA t5_readdir_args
1AAC  A9 C1    LDA #$C1
1AAE  8D ED 22 STA $22ED
1AB1  A9 22    LDA #$22
1AB3  8D EE 22 STA $22EE
1AB6  78       SEI
1AB7  A2 EB    LDX #$EB
1AB9  A0 22    LDY #$22
1ABB  20 3C F1 JSR LF13C
1ABE  60       RTS

t5_readdir_fd2:
1ABF  AD BF 20 LDA t5_dir_fd2
1AC2  8D EB 22 STA t5_readdir_args
1AC5  A9 D3    LDA #$D3
1AC7  8D ED 22 STA $22ED
1ACA  A9 22    LDA #$22
1ACC  8D EE 22 STA $22EE
1ACF  78       SEI
1AD0  A2 EB    LDX #$EB
1AD2  A0 22    LDY #$22
1AD4  20 3C F1 JSR LF13C
1AD7  60       RTS

t5_verify_dirents_same_first_name:
1AD8  AD C1 22 LDA t5_dirent1
1ADB  F0 16    BEQ @fail
1ADD  AD D3 22 LDA t5_dirent2
1AE0  F0 11    BEQ @fail
1AE2  A0 00    LDY #$00

@loop:
1AE4  B9 C1 22 LDA t5_dirent1,Y
1AE7  D9 D3 22 CMP t5_dirent2,Y
1AEA  D0 07    BNE @fail
1AEC  C8       INY
1AED  C0 0D    CPY #$0D
1AEF  D0 F3    BNE @loop
1AF1  18       CLC
1AF2  60       RTS

@fail:
1AF3  38       SEC
1AF4  60       RTS

t5_run_v35_directory_control:
1AF5  20 AD 14 JSR t5_close_dirs
1AF8  20 70 1A JSR t5_opendir_root_fd1
1AFB  90 05    BCC L1B02
1AFD  20 ED 13 JSR t5_print_opendir_fail
1B00  38       SEC
1B01  60       RTS

L1B02:
1B02  20 8B 1A JSR t5_opendir_root_fd2
1B05  90 08    BCC L1B0F
1B07  20 AD 14 JSR t5_close_dirs
1B0A  20 ED 13 JSR t5_print_opendir_fail
1B0D  38       SEC
1B0E  60       RTS

L1B0F:
1B0F  20 A6 1A JSR t5_readdir_fd1
1B12  90 08    BCC L1B1C
1B14  20 AD 14 JSR t5_close_dirs
1B17  20 F6 13 JSR t5_print_readdir_fail
1B1A  38       SEC
1B1B  60       RTS

L1B1C:
1B1C  C9 01    CMP #$01
1B1E  D0 09    BNE @readdir_fail
1B20  E0 00    CPX #$00
1B22  D0 05    BNE @readdir_fail
1B24  20 BF 1A JSR t5_readdir_fd2
1B27  90 08    BCC L1B31

@readdir_fail:
1B29  20 AD 14 JSR t5_close_dirs
1B2C  20 F6 13 JSR t5_print_readdir_fail
1B2F  38       SEC
1B30  60       RTS

L1B31:
1B31  C9 01    CMP #$01
1B33  D0 04    BNE @readdir_fail2
1B35  E0 00    CPX #$00
1B37  F0 08    BEQ L1B41

@readdir_fail2:
1B39  20 AD 14 JSR t5_close_dirs
1B3C  20 F6 13 JSR t5_print_readdir_fail
1B3F  38       SEC
1B40  60       RTS

L1B41:
1B41  20 D8 1A JSR t5_verify_dirents_same_first_name
1B44  90 08    BCC L1B4E
1B46  20 AD 14 JSR t5_close_dirs
1B49  20 08 14 JSR t5_print_v35_verify_fail
1B4C  38       SEC
1B4D  60       RTS

L1B4E:
1B4E  20 7D 14 JSR t5_closedir_fd1
1B51  90 08    BCC L1B5B
1B53  20 AD 14 JSR t5_close_dirs
1B56  20 FF 13 JSR t5_print_closedir_fail
1B59  38       SEC
1B5A  60       RTS

L1B5B:
1B5B  20 95 14 JSR t5_closedir_fd2
1B5E  90 05    BCC L1B65
1B60  20 FF 13 JSR t5_print_closedir_fail
1B63  38       SEC
1B64  60       RTS

L1B65:
1B65  18       CLC
1B66  60       RTS

t5_verify_getcwd_root0:
1B67  AD FD 22 LDA $22FD
1B6A  C9 03    CMP #$03
1B6C  D0 21    BNE @fail
1B6E  AD FE 22 LDA $22FE
1B71  D0 1C    BNE @fail
1B73  AD C0 20 LDA t5_cwd_buf
1B76  C9 30    CMP #$30
1B78  D0 15    BNE @fail
1B7A  AD C1 20 LDA $20C1
1B7D  C9 3A    CMP #$3A
1B7F  D0 0E    BNE @fail
1B81  AD C2 20 LDA $20C2
1B84  C9 2F    CMP #$2F
1B86  D0 07    BNE @fail
1B88  AD C3 20 LDA $20C3
1B8B  D0 02    BNE @fail
1B8D  18       CLC
1B8E  60       RTS

@fail:
1B8F  38       SEC
1B90  60       RTS

t5_opendir_dot_fd1:
1B91  A9 F4    LDA #$F4
1B93  8D E5 22 STA t5_opendir_args
1B96  A9 1F    LDA #$1F
1B98  8D E6 22 STA $22E6
1B9B  78       SEI
1B9C  A2 E5    LDX #$E5
1B9E  A0 22    LDY #$22
1BA0  20 39 F1 JSR LF139
1BA3  B0 05    BCS @fail
1BA5  8D BE 20 STA t5_dir_fd1
1BA8  18       CLC
1BA9  60       RTS

@fail:
1BAA  38       SEC
1BAB  60       RTS

t5_run_v36_current_dir:
1BAC  A9 F0    LDA #$F0
1BAE  8D F3 22 STA t5_chdir_args
1BB1  A9 1F    LDA #$1F
1BB3  8D F4 22 STA $22F4
1BB6  78       SEI
1BB7  A2 F3    LDX #$F3
1BB9  A0 22    LDY #$22
1BBB  20 42 F1 JSR LF142
1BBE  90 05    BCC L1BC5
1BC0  20 1A 14 JSR t5_print_chdir_fail
1BC3  38       SEC
1BC4  60       RTS

L1BC5:
1BC5  78       SEI
1BC6  A2 F9    LDX #$F9
1BC8  A0 22    LDY #$22
1BCA  20 45 F1 JSR LF145
1BCD  90 05    BCC L1BD4
1BCF  20 23 14 JSR t5_print_getcwd_fail
1BD2  38       SEC
1BD3  60       RTS

L1BD4:
1BD4  20 67 1B JSR t5_verify_getcwd_root0
1BD7  90 05    BCC L1BDE
1BD9  20 23 14 JSR t5_print_getcwd_fail
1BDC  38       SEC
1BDD  60       RTS

L1BDE:
1BDE  20 AD 14 JSR t5_close_dirs
1BE1  20 91 1B JSR t5_opendir_dot_fd1
1BE4  90 05    BCC L1BEB
1BE6  20 ED 13 JSR t5_print_opendir_fail
1BE9  38       SEC
1BEA  60       RTS

L1BEB:
1BEB  20 A6 1A JSR t5_readdir_fd1
1BEE  90 08    BCC L1BF8
1BF0  20 AD 14 JSR t5_close_dirs
1BF3  20 F6 13 JSR t5_print_readdir_fail
1BF6  38       SEC
1BF7  60       RTS

L1BF8:
1BF8  C9 01    CMP #$01
1BFA  D0 04    BNE @readdir_bad
1BFC  E0 00    CPX #$00
1BFE  F0 08    BEQ L1C08

@readdir_bad:
1C00  20 AD 14 JSR t5_close_dirs
1C03  20 F6 13 JSR t5_print_readdir_fail
1C06  38       SEC
1C07  60       RTS

L1C08:
1C08  20 7D 14 JSR t5_closedir_fd1
1C0B  90 05    BCC L1C12
1C0D  20 FF 13 JSR t5_print_closedir_fail
1C10  38       SEC
1C11  60       RTS

L1C12:
1C12  A9 00    LDA #$00
1C14  20 20 15 JSR t5_open_dot_bulk_path
1C17  90 05    BCC L1C1E
1C19  20 2C 14 JSR t5_print_v36_verify_fail
1C1C  38       SEC
1C1D  60       RTS

L1C1E:
1C1E  A0 12    LDY #$12
1C20  20 72 15 JSR t5_file_read
1C23  08       PHP
1C24  48       PHA
1C25  DA       PHX
1C26  20 62 14 JSR t5_close_file
1C29  FA       PLX
1C2A  68       PLA
1C2B  28       PLP
1C2C  90 05    BCC L1C33
1C2E  20 2C 14 JSR t5_print_v36_verify_fail
1C31  38       SEC
1C32  60       RTS

L1C33:
1C33  C9 12    CMP #$12
1C35  D0 04    BNE @read_bad
1C37  E0 00    CPX #$00
1C39  F0 05    BEQ L1C40

@read_bad:
1C3B  20 2C 14 JSR t5_print_v36_verify_fail
1C3E  38       SEC
1C3F  60       RTS

L1C40:
1C40  18       CLC
1C41  60       RTS

t5_chdir_drive0_root:
1C42  A9 F0    LDA #$F0
1C44  8D F3 22 STA t5_chdir_args
1C47  A9 1F    LDA #$1F
1C49  8D F4 22 STA $22F4
1C4C  78       SEI
1C4D  A2 F3    LDX #$F3
1C4F  A0 22    LDY #$22
1C51  20 42 F1 JSR LF142
1C54  60       RTS

t5_chdir_v37_dir:
1C55  A9 05    LDA #$05
1C57  8D F3 22 STA t5_chdir_args
1C5A  A9 20    LDA #$20
1C5C  8D F4 22 STA $22F4
1C5F  78       SEI
1C60  A2 F3    LDX #$F3
1C62  A0 22    LDY #$22
1C64  20 42 F1 JSR LF142
1C67  60       RTS

t5_verify_getcwd_v37:
1C68  AD FD 22 LDA $22FD
1C6B  C9 09    CMP #$09
1C6D  D0 1D    BNE @fail
1C6F  AD FE 22 LDA $22FE
1C72  D0 18    BNE @fail
1C74  A0 00    LDY #$00

@loop:
1C76  B9 C0 20 LDA t5_cwd_buf,Y
1C79  D9 1F 20 CMP t5_expect_cwd_v37,Y
1C7C  D0 0E    BNE @fail
1C7E  F0 03    BEQ @check_end

@next:
1C80  C8       INY
1C81  80 F3    BRA @loop

@check_end:
1C83  B9 1F 20 LDA t5_expect_cwd_v37,Y
1C86  F0 02    BEQ @ok
1C88  80 F6    BRA @next

@ok:
1C8A  18       CLC
1C8B  60       RTS

@fail:
1C8C  38       SEC
1C8D  60       RTS

t5_delete_v37_file_path:
1C8E  A9 0C    LDA #$0C
1C90  8D B3 22 STA t5_delete_args
1C93  A9 20    LDA #$20
1C95  8D B4 22 STA $22B4
1C98  78       SEI
1C99  A2 B3    LDX #$B3
1C9B  A0 22    LDY #$22
1C9D  20 24 F1 JSR LF124
1CA0  60       RTS

t5_mkdir_v37_dir:
1CA1  A9 05    LDA #$05
1CA3  8D 01 23 STA t5_mkdir_args
1CA6  A9 20    LDA #$20
1CA8  8D 02 23 STA $2302
1CAB  78       SEI
1CAC  A2 01    LDX #$01
1CAE  A0 23    LDY #$23
1CB0  20 48 F1 JSR LF148
1CB3  60       RTS

t5_rmdir_v37_dir:
1CB4  A9 05    LDA #$05
1CB6  8D 07 23 STA t5_rmdir_args
1CB9  A9 20    LDA #$20
1CBB  8D 08 23 STA $2308
1CBE  78       SEI
1CBF  A2 07    LDX #$07
1CC1  A0 23    LDY #$23
1CC3  20 4B F1 JSR LF14B
1CC6  60       RTS

t5_opendir_v37_dir_fd1:
1CC7  A9 05    LDA #$05
1CC9  8D E5 22 STA t5_opendir_args
1CCC  A9 20    LDA #$20
1CCE  8D E6 22 STA $22E6
1CD1  78       SEI
1CD2  A2 E5    LDX #$E5
1CD4  A0 22    LDY #$22
1CD6  20 39 F1 JSR LF139
1CD9  B0 05    BCS @fail
1CDB  8D BE 20 STA t5_dir_fd1
1CDE  18       CLC
1CDF  60       RTS

@fail:
1CE0  38       SEC
1CE1  60       RTS

t5_run_v37_mkdir_rmdir:
1CE2  20 42 1C JSR t5_chdir_drive0_root
1CE5  90 05    BCC L1CEC
1CE7  20 1A 14 JSR t5_print_chdir_fail
1CEA  38       SEC
1CEB  60       RTS

L1CEC:
1CEC  20 8E 1C JSR t5_delete_v37_file_path
1CEF  20 B4 1C JSR t5_rmdir_v37_dir
1CF2  20 A1 1C JSR t5_mkdir_v37_dir
1CF5  90 05    BCC L1CFC
1CF7  20 3E 14 JSR t5_print_mkdir_fail
1CFA  38       SEC
1CFB  60       RTS

L1CFC:
1CFC  20 55 1C JSR t5_chdir_v37_dir
1CFF  90 05    BCC L1D06
1D01  20 1A 14 JSR t5_print_chdir_fail
1D04  38       SEC
1D05  60       RTS

L1D06:
1D06  78       SEI
1D07  A2 F9    LDX #$F9
1D09  A0 22    LDY #$22
1D0B  20 45 F1 JSR LF145
1D0E  90 05    BCC L1D15
1D10  20 23 14 JSR t5_print_getcwd_fail
1D13  38       SEC
1D14  60       RTS

L1D15:
1D15  20 68 1C JSR t5_verify_getcwd_v37
1D18  90 05    BCC L1D1F
1D1A  20 23 14 JSR t5_print_getcwd_fail
1D1D  38       SEC
1D1E  60       RTS

L1D1F:
1D1F  A9 01    LDA #$01
1D21  20 3E 15 JSR t5_open_v37_rel_file_path
1D24  90 05    BCC L1D2B
1D26  20 6F 13 JSR t5_print_trunc_fail
1D29  38       SEC
1D2A  60       RTS

L1D2B:
1D2B  A9 3B    LDA #$3B
1D2D  A2 20    LDX #$20
1D2F  A0 05    LDY #$05
1D31  20 4D 15 JSR t5_file_write
1D34  08       PHP
1D35  20 62 14 JSR t5_close_file
1D38  28       PLP
1D39  90 05    BCC L1D40
1D3B  20 6F 13 JSR t5_print_trunc_fail
1D3E  38       SEC
1D3F  60       RTS

L1D40:
1D40  20 42 1C JSR t5_chdir_drive0_root
1D43  90 05    BCC L1D4A
1D45  20 1A 14 JSR t5_print_chdir_fail
1D48  38       SEC
1D49  60       RTS

L1D4A:
1D4A  A0 05    LDY #$05
1D4C  5A       PHY
1D4D  A9 00    LDA #$00
1D4F  20 2F 15 JSR t5_open_v37_file_path
1D52  90 06    BCC L1D5A
1D54  7A       PLY
1D55  20 50 14 JSR t5_print_v37_verify_fail
1D58  38       SEC
1D59  60       RTS

L1D5A:
1D5A  7A       PLY
1D5B  20 72 15 JSR t5_file_read
1D5E  08       PHP
1D5F  48       PHA
1D60  DA       PHX
1D61  20 62 14 JSR t5_close_file
1D64  FA       PLX
1D65  68       PLA
1D66  28       PLP
1D67  90 05    BCC L1D6E
1D69  20 50 14 JSR t5_print_v37_verify_fail
1D6C  38       SEC
1D6D  60       RTS

L1D6E:
1D6E  C9 05    CMP #$05
1D70  D0 09    BNE @verify_fail
1D72  E0 00    CPX #$00
1D74  D0 05    BNE @verify_fail
1D76  20 20 17 JSR t5_verify_abcde
1D79  90 05    BCC L1D80

@verify_fail:
1D7B  20 50 14 JSR t5_print_v37_verify_fail
1D7E  38       SEC
1D7F  60       RTS

L1D80:
1D80  20 8E 1C JSR t5_delete_v37_file_path
1D83  90 05    BCC L1D8A
1D85  20 C9 13 JSR t5_print_delete_fail
1D88  38       SEC
1D89  60       RTS

L1D8A:
1D8A  20 B4 1C JSR t5_rmdir_v37_dir
1D8D  90 05    BCC L1D94
1D8F  20 47 14 JSR t5_print_rmdir_fail
1D92  38       SEC
1D93  60       RTS

L1D94:
1D94  20 C7 1C JSR t5_opendir_v37_dir_fd1
1D97  B0 08    BCS L1DA1
1D99  20 7D 14 JSR t5_closedir_fd1
1D9C  20 50 14 JSR t5_print_v37_verify_fail
1D9F  38       SEC
1DA0  60       RTS

L1DA1:
1DA1  18       CLC
1DA2  60       RTS

user_task5_entry:
1DA3  20 54 13 JSR t5_print_start
1DA6  20 6C 17 JSR t5_run_bulk_v31
1DA9  90 06    BCC L1DB1
1DAB  20 5D 13 JSR t5_print_bulk_fail
1DAE  4C F6 1D JMP @exit

L1DB1:
1DB1  20 66 13 JSR t5_print_bulk_ok
1DB4  20 94 17 JSR t5_run_v32_open_modes
1DB7  90 03    BCC L1DBC
1DB9  4C F6 1D JMP @exit

L1DBC:
1DBC  20 B7 13 JSR t5_print_v32_ok
1DBF  20 93 18 JSR t5_run_v33_seek_tell
1DC2  90 03    BCC L1DC7
1DC4  4C F6 1D JMP @exit

L1DC7:
1DC7  20 C0 13 JSR t5_print_v33_ok
1DCA  20 F7 19 JSR t5_run_v34_delete_rename
1DCD  90 03    BCC L1DD2
1DCF  4C F6 1D JMP @exit

L1DD2:
1DD2  20 E4 13 JSR t5_print_v34_ok
1DD5  20 F5 1A JSR t5_run_v35_directory_control
1DD8  90 03    BCC L1DDD
1DDA  4C F6 1D JMP @exit

L1DDD:
1DDD  20 11 14 JSR t5_print_v35_ok
1DE0  20 AC 1B JSR t5_run_v36_current_dir
1DE3  90 03    BCC L1DE8
1DE5  4C F6 1D JMP @exit

L1DE8:
1DE8  20 35 14 JSR t5_print_v36_ok
1DEB  20 E2 1C JSR t5_run_v37_mkdir_rmdir
1DEE  90 03    BCC L1DF3
1DF0  4C F6 1D JMP @exit

L1DF3:
1DF3  20 59 14 JSR t5_print_v37_ok

@exit:
1DF6  20 62 14 JSR t5_close_file
1DF9  20 AD 14 JSR t5_close_dirs
1DFC  4C 00 F1 JMP LF100

user_task6_entry:
1DFF  20 3A 1E JSR neox_cc65_runtime_init
1E02  4C 05 1E JMP neosh_main

neosh_main:
1E05  4C A1 38 JMP _neosh_main

nbox_load_child_line:
1E08  9C 29 64 STZ __C_BSS_LOAD__
1E0B  9C 69 64 STZ _nbox_line_len
1E0E  78       SEI
1E0F  A2 1D    LDX #$1D
1E11  A0 23    LDY #$23
1E13  20 57 F1 JSR LF157
1E16  B0 08    BCS @failed
1E18  AD 20 23 LDA $2320
1E1B  8D 69 64 STA _nbox_line_len
1E1E  18       CLC
1E1F  60       RTS

@failed:
1E20  38       SEC
1E21  60       RTS

_neosh_nbox_child_entry:
1E22  20 54 F1 JSR LF154
1E25  B0 0E    BCS @launch_failed
1E27  48       PHA
1E28  20 08 1E JSR nbox_load_child_line
1E2B  B0 07    BCS @line_failed
1E2D  68       PLA
1E2E  20 2F 25 JSR _nbox_execute_launch_id
1E31  4C 00 F1 JMP LF100

@line_failed:
1E34  68       PLA

@launch_failed:
1E35  A9 06    LDA #$06
1E37  4C 00 F1 JMP LF100

neox_cc65_runtime_init:
1E3A  A9 00    LDA #$00
1E3C  85 20    STA $20
1E3E  A9 80    LDA #$80
1E40  85 21    STA $21
1E42  A9 29    LDA #$29
1E44  85 28    STA $28
1E46  A9 64    LDA #$64
1E48  85 29    STA $29
1E4A  A9 CA    LDA #$CA
1E4C  85 30    STA $30
1E4E  A9 05    LDA #$05
1E50  85 31    STA $31
1E52  A5 30    LDA $30
1E54  05 31    ORA $31
1E56  F0 20    BEQ @done
1E58  A9 00    LDA #$00
1E5A  A0 00    LDY #$00

@clear_byte:
1E5C  91 28    STA ($28),Y
1E5E  E6 28    INC $28
1E60  D0 02    BNE @pointer_ready
1E62  E6 29    INC $29

@pointer_ready:
1E64  A5 30    LDA $30
1E66  D0 02    BNE @decrement_low
1E68  C6 31    DEC $31

@decrement_low:
1E6A  C6 30    DEC $30
1E6C  A5 30    LDA $30
1E6E  05 31    ORA $31
1E70  D0 02    BNE @load_zero
1E72  80 04    BRA @done

@load_zero:
1E74  A9 00    LDA #$00
1E76  80 E4    BRA @clear_byte

@done:
1E78  60       RTS

t1_ping_byte:
1E79  50 00    BVC t1_loop_lo

t1_loop_lo:
1E7B  00       BRK

t1_loop_hi:
1E7C  00       BRK

t1_last_loop_lo:
1E7D  00       BRK

t1_last_loop_hi:
1E7E  00       BRK

t1_start_tick_lo:
1E7F  00       BRK

t1_start_tick_hi:
1E80  00       BRK

t1_now_tick_lo:
1E81  00       BRK

t1_now_tick_hi:
1E82  00       BRK

t1_delta_loop_lo:
1E83  00       BRK

t1_delta_loop_hi:
1E84  00       BRK

t1_msg_start:
1E85  54       .byte $54
1E86  31 20    AND ($20),Y
1E88  50 49    BVC L1ED3
1E8A  4E 47 50 LSR $5047
1E8D  4F 4E 47 BBR4 $4E,L1ED7
1E90  20 54 49 JSR L4954
1E93  43       .byte $43
1E94  4B       .byte $4B
1E95  53       .byte $53
1E96  0D 54 31 ORA $3154
1E99  20 6C 70 JSR L706C
1E9C  73       .byte $73
1E9D  3D 24 30 AND $3024,X
1EA0  30 30    BMI L1ED2
1EA2  30 0D    BMI L1EB1

t1_msg_fail:
1EA4  54       .byte $54
1EA5  31 20    AND ($20),Y
1EA7  50 49    BVC L1EF2
1EA9  4E 47 50 LSR $5047
1EAC  4F 4E 47 BBR4 $4E,L1EF6
1EAF  20 46 41 JSR L4146
1EB2  49 4C    EOR #$4C
1EB4  0D 01 00 ORA $0001
1EB7  00       BRK
1EB8  00       BRK
1EB9  00       BRK
1EBA  00       BRK

t1_write_args:
1EBB  03       .byte $03
1EBC  00       BRK
1EBD  79 1E 01 ADC $011E,Y
1EC0  00       BRK

t1_read_args:
1EC1  04 00    TSB $00
1EC3  7A       PLY
1EC4  1E 01 00 ASL $0001,X

t2_pong_byte:
1EC7  51 00    EOR ($00),Y

t2_msg_start:
1EC9  54       .byte $54
1ECA  32 20    AND ($20)
1ECC  50 49    BVC L1F17
1ECE  4E 47 50 LSR $5047
1ED1  4F 4E 47 BBR4 $4E,L1F1B
1ED4  20 53 54 JSR L5453

L1ED7:
1ED7  41 52    EOR ($52,X)
1ED9  54       .byte $54
1EDA  0D 54 32 ORA $3254
1EDD  20 50 49 JSR L4950
1EE0  4E 47 50 LSR $5047
1EE3  4F 4E 47 BBR4 $4E,L1F2D
1EE6  20 46 41 JSR L4146
1EE9  49 4C    EOR #$4C
1EEB  20 3F 0D JSR L0D3F

t2_wr_stdout_args:
1EEE  01 00    ORA ($00,X)
1EF0  00       BRK
1EF1  00       BRK

L1EF2:
1EF2  00       BRK
1EF3  00       BRK

t2_read_args:
1EF4  03       .byte $03
1EF5  00       BRK

L1EF6:
1EF6  C8       INY
1EF7  1E 01 00 ASL $0001,X

t2_write_args:
1EFA  04 00    TSB $00
1EFC  C7 1E    SMB4 $1E
1EFE  01 00    ORA ($00,X)

t3_byte:
1F00  00       BRK

t3_read_args:
1F01  00       BRK
1F02  00       BRK
1F03  00       BRK
1F04  1F 01 00 BBR1 $01,t3_write_args

t3_write_args:
1F07  01 00    ORA ($00,X)
1F09  00       BRK
1F0A  1F 01 00 BBR1 $01,t4_path

t4_path:
1F0D  54       .byte $54
1F0E  45 53    EOR $53
1F10  54       .byte $54
1F11  2E 54 58 ROL $5854
1F14  54       .byte $54
1F15  00       BRK

t4_read_buf:
1F16  00       BRK

L1F17:
1F17  00       BRK
1F18  00       BRK
1F19  00       BRK
1F1A  00       BRK

L1F1B:
1F1B  00       BRK
1F1C  00       BRK
1F1D  00       BRK
1F1E  00       BRK
1F1F  00       BRK
1F20  00       BRK
1F21  00       BRK
1F22  00       BRK
1F23  00       BRK
1F24  00       BRK
1F25  00       BRK
1F26  00       BRK
1F27  00       BRK
1F28  00       BRK
1F29  00       BRK
1F2A  00       BRK
1F2B  00       BRK
1F2C  00       BRK

L1F2D:
1F2D  00       BRK
1F2E  00       BRK
1F2F  00       BRK
1F30  00       BRK
1F31  00       BRK
1F32  00       BRK
1F33  00       BRK
1F34  00       BRK
1F35  00       BRK
1F36  00       BRK
1F37  00       BRK
1F38  00       BRK
1F39  00       BRK
1F3A  00       BRK
1F3B  00       BRK
1F3C  00       BRK
1F3D  00       BRK
1F3E  00       BRK
1F3F  00       BRK
1F40  00       BRK
1F41  00       BRK
1F42  00       BRK
1F43  00       BRK
1F44  00       BRK
1F45  00       BRK
1F46  00       BRK
1F47  00       BRK
1F48  00       BRK
1F49  00       BRK
1F4A  00       BRK
1F4B  00       BRK
1F4C  00       BRK
1F4D  00       BRK
1F4E  00       BRK
1F4F  00       BRK
1F50  00       BRK
1F51  00       BRK
1F52  00       BRK
1F53  00       BRK
1F54  00       BRK
1F55  00       BRK

t4_file_fd:
1F56  FF 54 34 BBS7 $54,L1F8D
1F59  20 46 53 JSR L5346
1F5C  20 53 54 JSR L5453
1F5F  41 52    EOR ($52,X)
1F61  54       .byte $54
1F62  0D 54 34 ORA $3454
1F65  20 4F 50 JSR L504F
1F68  45 4E    EOR $4E
1F6A  20 46 41 JSR L4146
1F6D  49 4C    EOR #$4C
1F6F  0D 54 34 ORA $3454
1F72  20 52 45 JSR L4552
1F75  41 44    EOR ($44,X)
1F77  20 46 41 JSR L4146
1F7A  49 4C    EOR #$4C
1F7C  0D 54 34 ORA $3454
1F7F  20 57 52 JSR _neox_closedir
1F82  49 54    EOR #$54
1F84  45 20    EOR $20
1F86  46 41    LSR $41
1F88  49 4C    EOR #$4C
1F8A  0D 54 34 ORA $3454

L1F8D:
1F8D  20 45 4D JSR L4D45
1F90  50 54    BVC L1FE6
1F92  59 0D 0D EOR $0D0D,Y

t4_stdout_args:
1F95  01 00    ORA ($00,X)
1F97  00       BRK
1F98  00       BRK
1F99  00       BRK
1F9A  00       BRK

t4_open_args:
1F9B  0D 1F 40 ORA $401F
1F9E  00       BRK
1F9F  00       BRK
1FA0  00       BRK

t4_read_args:
1FA1  FF 00 16 BBS7 $00,L1FBA
1FA4  1F 40 00 BBR1 $40,t5_bulk_path

t5_bulk_path:
1FA7  42       .byte $42
1FA8  55 4C    EOR $4C,X
1FAA  4B       .byte $4B
1FAB  54       .byte $54
1FAC  45 53    EOR $53
1FAE  54       .byte $54
1FAF  2E 54 58 ROL $5854
1FB2  54       .byte $54
1FB3  00       BRK

t5_v32_path:
1FB4  56 33    LSR $33,X
1FB6  32 54    AND ($54)
1FB8  45 53    EOR $53

L1FBA:
1FBA  54       .byte $54
1FBB  2E 54 58 ROL $5854
1FBE  54       .byte $54
1FBF  00       BRK

t5_v32_new_path:
1FC0  56 33    LSR $33,X
1FC2  32 4E    AND ($4E)
1FC4  45 57    EOR $57
1FC6  2E 54 58 ROL $5854
1FC9  54       .byte $54
1FCA  00       BRK

t5_v33_path:
1FCB  56 33    LSR $33,X
1FCD  33       .byte $33
1FCE  54       .byte $54
1FCF  45 53    EOR $53
1FD1  54       .byte $54
1FD2  2E 54 58 ROL $5854
1FD5  54       .byte $54
1FD6  00       BRK

t5_v34_path:
1FD7  56 33    LSR $33,X
1FD9  34 54    BIT $54,X
1FDB  45 53    EOR $53
1FDD  54       .byte $54
1FDE  2E 54 58 ROL $5854
1FE1  54       .byte $54
1FE2  00       BRK

t5_v34_renamed_path:
1FE3  56 33    LSR $33,X
1FE5  34 52    BIT $52,X
1FE7  45 4E    EOR $4E
1FE9  2E 54 58 ROL $5854
1FEC  54       .byte $54
1FED  00       BRK

t5_root_path:
1FEE  2F 00 30 BBR2 $00,L2021
1FF1  3A       DEC
1FF2  2F 00 2E BBR2 $00,L2023
1FF5  00       BRK

t5_dot_bulk_path:
1FF6  2E 2F 42 ROL $422F
1FF9  55 4C    EOR $4C,X
1FFB  4B       .byte $4B
1FFC  54       .byte $54
1FFD  45 53    EOR $53
1FFF  54       .byte $54
2000  2E 54 58 ROL $5854
2003  54       .byte $54
2004  00       BRK

t5_v37_dir_path:
2005  56 33    LSR $33,X
2007  37 44    RMB3 $44
2009  49 52    EOR #$52
200B  00       BRK

t5_v37_file_path:
200C  56 33    LSR $33,X
200E  37 44    RMB3 $44
2010  49 52    EOR #$52
2012  2F 41 2E BBR2 $41,t5_new_text
2015  54       .byte $54
2016  58       CLI
2017  54       .byte $54
2018  00       BRK

t5_v37_rel_file_path:
2019  41 2E    EOR ($2E,X)
201B  54       .byte $54
201C  58       CLI
201D  54       .byte $54
201E  00       BRK

t5_expect_cwd_v37:
201F  30 3A    BMI t5_expect_abcde_bang

L2021:
2021  2F 56 33 BBR2 $56,L2057
2024  37 44    RMB3 $44
2026  49 52    EOR #$52
2028  00       BRK

t5_bulk_text:
2029  4E 45 4F LSR @store_fd
202C  58       CLI
202D  20 56 33 JSR L3356
2030  31 20    AND ($20),Y
2032  42       .byte $42
2033  55 4C    EOR $4C,X
2035  4B       .byte $4B
2036  20 54 45 JSR L4554
2039  53       .byte $53
203A  54       .byte $54

t5_seed_text:
203B  41 42    EOR ($42,X)
203D  43       .byte $43
203E  44       .byte $44
203F  45 58    EOR $58
2041  59 5A 4E EOR $4E5A,Y
2044  45 57    EOR $57

t5_bang_text:
2046  21 51    AND ($51,X)

t5_r_text:
2048  52 58    EOR ($58)
204A  59 43 44 EOR $4443,Y
204D  45 58    EOR $58
204F  5A       PHY
2050  43       .byte $43
2051  44       .byte $44
2052  45 4E    EOR $4E
2054  45 57    EOR $57

t5_expect_abcde:
2056  41 42    EOR ($42,X)
2058  43       .byte $43
2059  44       .byte $44
205A  45 41    EOR $41
205C  42       .byte $42
205D  43       .byte $43
205E  44       .byte $44
205F  45 21    EOR $21

t5_expect_abcdq_bang:
2061  41 42    EOR ($42,X)
2063  43       .byte $43
2064  44       .byte $44
2065  51 21    EOR ($21),Y

t5_expect_abcrq_bang:
2067  41 42    EOR ($42,X)
2069  43       .byte $43
206A  52 51    EOR ($51)
206C  21 00    AND ($00,X)
206E  00       BRK
206F  00       BRK
2070  00       BRK
2071  00       BRK
2072  00       BRK
2073  00       BRK
2074  00       BRK
2075  00       BRK
2076  00       BRK
2077  00       BRK
2078  00       BRK
2079  00       BRK
207A  00       BRK
207B  00       BRK
207C  00       BRK
207D  00       BRK
207E  00       BRK
207F  00       BRK
2080  00       BRK
2081  00       BRK
2082  00       BRK
2083  00       BRK
2084  00       BRK
2085  00       BRK
2086  00       BRK
2087  00       BRK
2088  00       BRK
2089  00       BRK
208A  00       BRK
208B  00       BRK
208C  00       BRK
208D  00       BRK
208E  00       BRK
208F  00       BRK
2090  00       BRK
2091  00       BRK
2092  00       BRK
2093  00       BRK
2094  00       BRK
2095  00       BRK
2096  00       BRK
2097  00       BRK
2098  00       BRK
2099  00       BRK
209A  00       BRK
209B  00       BRK
209C  00       BRK
209D  00       BRK
209E  00       BRK
209F  00       BRK
20A0  00       BRK
20A1  00       BRK
20A2  00       BRK
20A3  00       BRK
20A4  00       BRK
20A5  00       BRK
20A6  00       BRK
20A7  00       BRK
20A8  00       BRK
20A9  00       BRK
20AA  00       BRK
20AB  00       BRK
20AC  00       BRK

t5_read_buf:
20AD  00       BRK
20AE  00       BRK
20AF  00       BRK
20B0  00       BRK
20B1  00       BRK
20B2  00       BRK
20B3  00       BRK
20B4  00       BRK
20B5  00       BRK
20B6  00       BRK
20B7  00       BRK
20B8  00       BRK
20B9  00       BRK
20BA  00       BRK
20BB  00       BRK
20BC  00       BRK

t5_file_fd:
20BD  FF FF FF BBS7 $FF,t5_dir_fd2

t5_cwd_buf:
20C0  00       BRK
20C1  00       BRK
20C2  00       BRK
20C3  00       BRK
20C4  00       BRK
20C5  00       BRK
20C6  00       BRK
20C7  00       BRK
20C8  00       BRK
20C9  00       BRK
20CA  00       BRK
20CB  00       BRK
20CC  00       BRK
20CD  00       BRK
20CE  00       BRK
20CF  00       BRK
20D0  00       BRK
20D1  00       BRK
20D2  00       BRK
20D3  00       BRK
20D4  00       BRK
20D5  00       BRK
20D6  00       BRK
20D7  00       BRK
20D8  00       BRK
20D9  00       BRK
20DA  00       BRK
20DB  00       BRK
20DC  00       BRK
20DD  00       BRK
20DE  00       BRK
20DF  00       BRK

t5_expected_pos_lo:
20E0  00       BRK

t5_expected_pos_hi:
20E1  00       BRK

t5_msg_start:
20E2  54       .byte $54
20E3  35 20    AND $20,X
20E5  56 33    LSR $33,X
20E7  37 20    RMB3 $20
20E9  53       .byte $53
20EA  54       .byte $54
20EB  41 52    EOR ($52,X)
20ED  54       .byte $54
20EE  0D 54 35 ORA $3554
20F1  20 42 55 JSR L5542
20F4  4C 4B 20 JMP L204B
20F7  46 41    LSR $41
20F9  49 4C    EOR #$4C
20FB  0D 54 35 ORA $3554
20FE  20 42 55 JSR L5542
2101  4C 4B 20 JMP L204B
2104  4F 4B 0D BBR4 $4B,L2114

t5_msg_trunc_fail:
2107  54       .byte $54
2108  35 20    AND $20,X
210A  54       .byte $54
210B  52 55    EOR ($55)
210D  4E 43 20 LSR t5_new_text
2110  46 41    LSR $41
2112  49 4C    EOR #$4C

L2114:
2114  0D 54 35 ORA $3554
2117  20 57 45 JSR L4557
211A  58       CLI
211B  49 53    EOR #$53
211D  54       .byte $54
211E  20 46 41 JSR L4146
2121  49 4C    EOR #$4C
2123  0D 54 35 ORA $3554
2126  20 52 57 JSR L5752
2129  45 58    EOR $58
212B  49 53    EOR #$53
212D  54       .byte $54
212E  20 46 41 JSR L4146
2131  49 4C    EOR #$4C
2133  0D 54 35 ORA $3554
2136  20 52 57 JSR L5752
2139  43       .byte $43
213A  52 45    EOR ($45)
213C  41 54    EOR ($54,X)
213E  45 20    EOR $20
2140  46 41    LSR $41
2142  49 4C    EOR #$4C
2144  0D 54 35 ORA $3554
2147  20 56 45 JSR L4556
214A  52 49    EOR ($49)
214C  46 59    LSR $59
214E  20 46 41 JSR L4146
2151  49 4C    EOR #$4C
2153  0D 54 35 ORA $3554
2156  20 53 45 JSR L4553
2159  45 4B    EOR $4B
215B  20 46 41 JSR L4146
215E  49 4C    EOR #$4C
2160  0D 54 35 ORA $3554
2163  20 54 45 JSR L4554
2166  4C 4C 20 JMP L204C
2169  46 41    LSR $41
216B  49 4C    EOR #$4C
216D  0D 54 35 ORA $3554
2170  20 56 33 JSR L3356
2173  33       .byte $33
2174  20 56 45 JSR L4556
2177  52 49    EOR ($49)
2179  46 59    LSR $59
217B  20 46 41 JSR L4146
217E  49 4C    EOR #$4C
2180  0D 54 35 ORA $3554
2183  20 44 45 JSR L4544
2186  4C 45 54 JMP L5445
2189  45 20    EOR $20
218B  46 41    LSR $41
218D  49 4C    EOR #$4C
218F  0D 54 35 ORA $3554
2192  20 52 45 JSR L4552
2195  4E 41 4D LSR $4D41
2198  45 20    EOR $20
219A  46 41    LSR $41
219C  49 4C    EOR #$4C
219E  0D 54 35 ORA $3554
21A1  20 56 33 JSR L3356
21A4  34 20    BIT $20,X
21A6  56 45    LSR $45,X
21A8  52 49    EOR ($49)
21AA  46 59    LSR $59
21AC  20 46 41 JSR L4146
21AF  49 4C    EOR #$4C
21B1  0D 54 35 ORA $3554
21B4  20 4F 50 JSR L504F
21B7  45 4E    EOR $4E
21B9  44       .byte $44
21BA  49 52    EOR #$52
21BC  20 46 41 JSR L4146
21BF  49 4C    EOR #$4C
21C1  0D 54 35 ORA $3554
21C4  20 52 45 JSR L4552
21C7  41 44    EOR ($44,X)
21C9  44       .byte $44
21CA  49 52    EOR #$52
21CC  20 46 41 JSR L4146
21CF  49 4C    EOR #$4C
21D1  0D 54 35 ORA $3554
21D4  20 43 4C JSR L4C43
21D7  4F 53 45 BBR4 $53,L221F
21DA  44       .byte $44
21DB  49 52    EOR #$52
21DD  20 46 41 JSR L4146
21E0  49 4C    EOR #$4C
21E2  0D 54 35 ORA $3554
21E5  20 56 33 JSR L3356
21E8  35 20    AND $20,X
21EA  56 45    LSR $45,X
21EC  52 49    EOR ($49)
21EE  46 59    LSR $59
21F0  20 46 41 JSR L4146
21F3  49 4C    EOR #$4C
21F5  0D 54 35 ORA $3554
21F8  20 43 48 JSR L4843
21FB  44       .byte $44
21FC  49 52    EOR #$52
21FE  20 46 41 JSR L4146
2201  49 4C    EOR #$4C
2203  0D 54 35 ORA $3554
2206  20 47 45 JSR L4547
2209  54       .byte $54
220A  43       .byte $43
220B  57 44    RMB5 $44
220D  20 46 41 JSR L4146
2210  49 4C    EOR #$4C
2212  0D 54 35 ORA $3554
2215  20 56 33 JSR L3356
2218  36 20    ROL $20,X
221A  56 45    LSR $45,X
221C  52 49    EOR ($49)
221E  46 59    LSR $59
2220  20 46 41 JSR L4146
2223  49 4C    EOR #$4C
2225  0D 54 35 ORA $3554
2228  20 4D 4B JSR L4B4D
222B  44       .byte $44
222C  49 52    EOR #$52
222E  20 46 41 JSR L4146
2231  49 4C    EOR #$4C
2233  0D 54 35 ORA $3554
2236  20 52 4D JSR L4D52
2239  44       .byte $44
223A  49 52    EOR #$52
223C  20 46 41 JSR L4146
223F  49 4C    EOR #$4C
2241  0D 54 35 ORA $3554
2244  20 56 33 JSR L3356
2247  37 20    RMB3 $20
2249  56 45    LSR $45,X
224B  52 49    EOR ($49)
224D  46 59    LSR $59
224F  20 46 41 JSR L4146
2252  49 4C    EOR #$4C
2254  0D 54 35 ORA $3554
2257  20 56 33 JSR L3356
225A  32 20    AND ($20)
225C  4F 4B 0D BBR4 $4B,L226C

t5_msg_v33_ok:
225F  54       .byte $54
2260  35 20    AND $20,X
2262  56 33    LSR $33,X
2264  33       .byte $33
2265  20 4F 4B JSR L4B4F
2268  0D 54 35 ORA $3554
226B  20 56 33 JSR L3356
226E  34 20    BIT $20,X
2270  4F 4B 0D BBR4 $4B,L2280

t5_msg_v35_ok:
2273  54       .byte $54
2274  35 20    AND $20,X
2276  56 33    LSR $33,X
2278  35 20    AND $20,X
227A  4F 4B 0D BBR4 $4B,L228A

t5_msg_v36_ok:
227D  54       .byte $54
227E  35 20    AND $20,X

L2280:
2280  56 33    LSR $33,X
2282  36 20    ROL $20,X
2284  4F 4B 0D BBR4 $4B,L2294

t5_msg_v37_ok:
2287  54       .byte $54
2288  35 20    AND $20,X

L228A:
228A  56 33    LSR $33,X
228C  37 20    RMB3 $20
228E  4F 4B 0D BBR4 $4B,L229E

t5_stdout_args:
2291  01 00    ORA ($00,X)
2293  00       BRK

L2294:
2294  00       BRK
2295  00       BRK
2296  00       BRK

t5_file_rw_args:
2297  FF 00 00 BBS7 $00,L229A

L229A:
229A  00       BRK
229B  00       BRK
229C  00       BRK

t5_open_args:
229D  B4 1F    LDY $1F,X
229F  40       RTI
22A0  00       BRK
22A1  00       BRK
22A2  00       BRK

t5_seek_args:
22A3  FF 00 00 BBS7 $00,L22A6

L22A6:
22A6  00       BRK
22A7  00       BRK
22A8  00       BRK
22A9  00       BRK
22AA  00       BRK
22AB  00       BRK
22AC  00       BRK

t5_tell_args:
22AD  FF 00 00 BBS7 $00,L22B0

L22B0:
22B0  00       BRK
22B1  00       BRK
22B2  00       BRK

t5_delete_args:
22B3  D7 1F    SMB5 $1F
22B5  40       RTI
22B6  00       BRK
22B7  00       BRK
22B8  00       BRK

t5_rename_args:
22B9  D7 1F    SMB5 $1F
22BB  E3       .byte $E3
22BC  1F 40 00 BBR1 $40,L22BF

L22BF:
22BF  00       BRK
22C0  00       BRK

t5_dirent1:
22C1  00       BRK
22C2  00       BRK
22C3  00       BRK
22C4  00       BRK
22C5  00       BRK
22C6  00       BRK
22C7  00       BRK
22C8  00       BRK
22C9  00       BRK
22CA  00       BRK
22CB  00       BRK
22CC  00       BRK
22CD  00       BRK
22CE  00       BRK
22CF  00       BRK
22D0  00       BRK
22D1  00       BRK
22D2  00       BRK

t5_dirent2:
22D3  00       BRK
22D4  00       BRK
22D5  00       BRK
22D6  00       BRK
22D7  00       BRK
22D8  00       BRK
22D9  00       BRK
22DA  00       BRK
22DB  00       BRK
22DC  00       BRK
22DD  00       BRK
22DE  00       BRK
22DF  00       BRK
22E0  00       BRK
22E1  00       BRK
22E2  00       BRK
22E3  00       BRK
22E4  00       BRK

t5_opendir_args:
22E5  EE 1F 40 INC $401F
22E8  00       BRK
22E9  00       BRK
22EA  00       BRK

t5_readdir_args:
22EB  FF 00 C1 BBS7 $00,L22AF
22EE  22       .byte $22
22EF  12 00    ORA ($00)

t5_closedir_args:
22F1  FF 00 F0 BBS7 $00,L22E4
22F4  1F 40 00 BBR1 $40,L22F7

L22F7:
22F7  00       BRK
22F8  00       BRK

t5_getcwd_args:
22F9  C0 20    CPY #$20
22FB  20 00 00 JSR __C_STACK_FILEOFFS__
22FE  00       BRK
22FF  00       BRK
2300  00       BRK

t5_mkdir_args:
2301  05 20    ORA $20
2303  40       RTI
2304  00       BRK
2305  00       BRK
2306  00       BRK

t5_rmdir_args:
2307  05 20    ORA $20
2309  40       RTI
230A  00       BRK
230B  00       BRK
230C  00       BRK

t5_save_args:
230D  A7 1F    SMB2 $1F
230F  29 20    AND #$20
2311  12 00    ORA ($00)
2313  00       BRK
2314  00       BRK

t5_load_args:
2315  A7 1F    SMB2 $1F
2317  6D 20 40 ADC $4020
231A  00       BRK
231B  00       BRK
231C  00       BRK

nbox_child_get_line:
231D  29 64    AND #$64
231F  40       RTI
2320  00       BRK

_neosh_nbox_resolve:
2321  20 85 61 JSR decsp7
2324  A9 FF    LDA #$FF
2326  8D 6A 64 STA _nbox_exec_mode
2329  8D 6B 64 STA _nbox_launch_id
232C  9C 6C 64 STZ _nbox_line_idx
232F  A9 0C    LDA #$0C
2331  8D 6D 64 STA $646D
2334  A0 05    LDY #$05
2336  A9 00    LDA #$00
2338  91 20    STA ($20),Y
233A  C8       INY
233B  91 20    STA ($20),Y
233D  80 0B    BRA L234A
233F  A0 05    LDY #$05
2341  A2 00    LDX #$00
2343  A9 01    LDA #$01
2345  20 1E 61 JSR addeqysp
2348  A0 06    LDY #$06

L234A:
234A  B1 20    LDA ($20),Y
234C  AA       TAX
234D  88       DEY
234E  B1 20    LDA ($20),Y
2350  CD 69 64 CMP _nbox_line_len
2353  8A       TXA
2354  E9 00    SBC #$00
2356  B0 1A    BCS L2372
2358  C8       INY
2359  B1 20    LDA ($20),Y
235B  AA       TAX
235C  88       DEY
235D  B1 20    LDA ($20),Y
235F  85 28    STA $28
2361  8A       TXA
2362  18       CLC
2363  69 64    ADC #$64
2365  85 29    STA $29
2367  A0 29    LDY #$29
2369  B1 28    LDA ($28),Y
236B  20 63 25 JSR L2563
236E  C9 00    CMP #$00
2370  D0 CD    BNE L233F

L2372:
2372  A0 06    LDY #$06
2374  B1 20    LDA ($20),Y
2376  AA       TAX
2377  88       DEY
2378  B1 20    LDA ($20),Y
237A  CD 69 64 CMP _nbox_line_len
237D  8A       TXA
237E  E9 00    SBC #$00
2380  B0 15    BCS L2397
2382  C8       INY
2383  B1 20    LDA ($20),Y
2385  AA       TAX
2386  88       DEY
2387  B1 20    LDA ($20),Y
2389  85 28    STA $28
238B  8A       TXA
238C  18       CLC
238D  69 64    ADC #$64
238F  85 29    STA $29
2391  A0 29    LDY #$29
2393  B1 28    LDA ($28),Y
2395  D0 0B    BNE L23A2

L2397:
2397  A9 FE    LDA #$FE
2399  8D 6A 64 STA _nbox_exec_mode
239C  A2 00    LDX #$00
239E  8A       TXA
239F  4C FE 61 JMP incsp7

L23A2:
23A2  A0 06    LDY #$06
23A4  B1 20    LDA ($20),Y
23A6  AA       TAX
23A7  88       DEY
23A8  B1 20    LDA ($20),Y
23AA  A0 03    LDY #$03
23AC  20 E6 63 JSR staxysp
23AF  80 09    BRA L23BA
23B1  A0 03    LDY #$03
23B3  A2 00    LDX #$00
23B5  A9 01    LDA #$01
23B7  20 1E 61 JSR addeqysp

L23BA:
23BA  A0 04    LDY #$04
23BC  B1 20    LDA ($20),Y
23BE  AA       TAX
23BF  88       DEY
23C0  B1 20    LDA ($20),Y
23C2  CD 69 64 CMP _nbox_line_len
23C5  8A       TXA
23C6  E9 00    SBC #$00
23C8  B0 30    BCS L23FA
23CA  C8       INY
23CB  B1 20    LDA ($20),Y
23CD  AA       TAX
23CE  88       DEY
23CF  B1 20    LDA ($20),Y
23D1  85 28    STA $28
23D3  8A       TXA
23D4  18       CLC
23D5  69 64    ADC #$64
23D7  85 29    STA $29
23D9  A0 29    LDY #$29
23DB  B1 28    LDA ($28),Y
23DD  F0 1B    BEQ L23FA
23DF  A0 04    LDY #$04
23E1  B1 20    LDA ($20),Y
23E3  AA       TAX
23E4  88       DEY
23E5  B1 20    LDA ($20),Y
23E7  85 28    STA $28
23E9  8A       TXA
23EA  18       CLC
23EB  69 64    ADC #$64
23ED  85 29    STA $29
23EF  A0 29    LDY #$29
23F1  B1 28    LDA ($28),Y
23F3  20 63 25 JSR L2563
23F6  C9 00    CMP #$00
23F8  F0 B7    BEQ L23B1

L23FA:
23FA  A0 04    LDY #$04
23FC  B1 20    LDA ($20),Y
23FE  AA       TAX
23FF  88       DEY
2400  B1 20    LDA ($20),Y
2402  38       SEC
2403  A0 05    LDY #$05
2405  F1 20    SBC ($20),Y
2407  48       PHA
2408  8A       TXA
2409  C8       INY
240A  F1 20    SBC ($20),Y
240C  AA       TAX
240D  68       PLA
240E  A0 01    LDY #$01
2410  20 E6 63 JSR staxysp
2413  A0 03    LDY #$03
2415  B1 20    LDA ($20),Y
2417  8D 6C 64 STA _nbox_line_idx
241A  A0 01    LDY #$01
241C  B1 20    LDA ($20),Y
241E  C8       INY
241F  11 20    ORA ($20),Y
2421  F0 11    BEQ L2434
2423  B1 20    LDA ($20),Y
2425  AA       TAX
2426  88       DEY
2427  B1 20    LDA ($20),Y
2429  C9 07    CMP #$07
242B  8A       TXA
242C  E9 00    SBC #$00
242E  B0 04    BCS L2434
2430  A9 00    LDA #$00
2432  80 07    BRA L243B

L2434:
2434  A9 01    LDA #$01
2436  A2 00    LDX #$00
2438  4C FE 61 JMP incsp7

L243B:
243B  92 20    STA ($20)
243D  A2 00    LDX #$00
243F  B2 20    LDA ($20)
2441  C9 0C    CMP #$0C
2443  90 03    BCC L2448
2445  4C CC 24 JMP L24CC

L2448:
2448  20 5E 61 JSR decsp4
244B  A0 0A    LDY #$0A
244D  B1 20    LDA ($20),Y
244F  AA       TAX
2450  88       DEY
2451  B1 20    LDA ($20),Y
2453  A0 02    LDY #$02
2455  91 20    STA ($20),Y
2457  C8       INY
2458  8A       TXA
2459  91 20    STA ($20),Y
245B  A0 06    LDY #$06
245D  B1 20    LDA ($20),Y
245F  AA       TAX
2460  88       DEY
2461  B1 20    LDA ($20),Y
2463  92 20    STA ($20)
2465  A0 01    LDY #$01
2467  8A       TXA
2468  91 20    STA ($20),Y
246A  A0 04    LDY #$04
246C  A2 00    LDX #$00
246E  B1 20    LDA ($20),Y
2470  20 6C 63 JSR mulax6
2473  18       CLC
2474  69 EF    ADC #$EF
2476  85 28    STA $28
2478  8A       TXA
2479  69 59    ADC #$59
247B  85 29    STA $29
247D  A0 01    LDY #$01
247F  B1 28    LDA ($28),Y
2481  AA       TAX
2482  B2 28    LDA ($28)
2484  20 9C 25 JSR L259C
2487  C9 00    CMP #$00
2489  F0 3A    BEQ L24C5
248B  B2 20    LDA ($20)
248D  8D 6D 64 STA $646D
2490  A2 00    LDX #$00
2492  B2 20    LDA ($20)
2494  20 6C 63 JSR mulax6
2497  18       CLC
2498  69 EF    ADC #$EF
249A  85 28    STA $28
249C  8A       TXA
249D  69 59    ADC #$59
249F  85 29    STA $29
24A1  A0 02    LDY #$02
24A3  B1 28    LDA ($28),Y
24A5  8D 6B 64 STA _nbox_launch_id
24A8  A2 00    LDX #$00
24AA  B2 20    LDA ($20)
24AC  20 6C 63 JSR mulax6
24AF  18       CLC
24B0  69 EF    ADC #$EF
24B2  85 28    STA $28
24B4  8A       TXA
24B5  69 59    ADC #$59
24B7  85 29    STA $29
24B9  C8       INY
24BA  B1 28    LDA ($28),Y
24BC  8D 6A 64 STA _nbox_exec_mode
24BF  A2 00    LDX #$00
24C1  8A       TXA
24C2  4C FE 61 JMP incsp7

L24C5:
24C5  18       CLC
24C6  1A       INC
24C7  72 20    ADC ($20)
24C9  4C 3B 24 JMP L243B

L24CC:
24CC  A9 01    LDA #$01
24CE  4C FE 61 JMP incsp7

_neosh_nbox_dispatch:
24D1  20 5E 61 JSR decsp4
24D4  AD 6A 64 LDA _nbox_exec_mode
24D7  C9 FE    CMP #$FE
24D9  D0 06    BNE L24E1
24DB  A2 00    LDX #$00
24DD  8A       TXA
24DE  4C EF 61 JMP incsp4

L24E1:
24E1  AD 6A 64 LDA _nbox_exec_mode
24E4  C9 FF    CMP #$FF
24E6  F0 09    BEQ L24F1
24E8  AD 6B 64 LDA _nbox_launch_id
24EB  C9 FF    CMP #$FF
24ED  F0 02    BEQ L24F1
24EF  80 0A    BRA L24FB

L24F1:
24F1  20 24 25 JSR _neosh_nbox_print_unknown
24F4  A2 00    LDX #$00
24F6  A9 06    LDA #$06
24F8  4C EF 61 JMP incsp4

L24FB:
24FB  AD 6C 64 LDA _nbox_line_idx
24FE  20 9A 63 JSR pusha0
2501  A5 20    LDA $20
2503  A6 21    LDX $21
2505  18       CLC
2506  69 02    ADC #$02
2508  90 01    BCC L250B
250A  E8       INX

L250B:
250B  20 39 26 JSR L2639
250E  AD 6D 64 LDA $646D
2511  20 86 63 JSR pusha
2514  A5 20    LDA $20
2516  A6 21    LDX $21
2518  18       CLC
2519  69 01    ADC #$01
251B  90 01    BCC L251E
251D  E8       INX

L251E:
251E  20 EE 26 JSR L26EE
2521  4C EF 61 JMP incsp4

_neosh_nbox_print_unknown:
2524  A9 D6    LDA #$D6
2526  A2 59    LDX #$59
2528  20 E0 57 JSR _neox_applet_report
252B  A2 00    LDX #$00
252D  8A       TXA
252E  60       RTS

_nbox_execute_launch_id:
252F  20 86 63 JSR pusha
2532  20 6B 61 JSR decsp5
2535  A0 05    LDY #$05
2537  B1 20    LDA ($20),Y
2539  20 B4 26 JSR L26B4
253C  92 20    STA ($20)
253E  20 98 63 JSR push0
2541  A5 20    LDA $20
2543  A6 21    LDX $21
2545  18       CLC
2546  69 03    ADC #$03
2548  90 01    BCC L254B
254A  E8       INX

L254B:
254B  20 39 26 JSR L2639
254E  B2 20    LDA ($20)
2550  20 86 63 JSR pusha
2553  A5 20    LDA $20
2555  A6 21    LDX $21
2557  18       CLC
2558  69 02    ADC #$02
255A  90 01    BCC L255D
255C  E8       INX

L255D:
255D  20 EE 26 JSR L26EE
2560  4C F9 61 JMP incsp6

L2563:
2563  20 86 63 JSR pusha
2566  B2 20    LDA ($20)
2568  C9 20    CMP #$20
256A  F0 0A    BEQ L2576
256C  C9 09    CMP #$09
256E  F0 06    BEQ L2576
2570  A2 00    LDX #$00
2572  8A       TXA
2573  4C CD 61 JMP incsp1

L2576:
2576  A9 01    LDA #$01
2578  A2 00    LDX #$00
257A  4C CD 61 JMP incsp1
257D  20 86 63 JSR pusha
2580  B2 20    LDA ($20)
2582  29 7F    AND #$7F
2584  92 20    STA ($20)
2586  C9 61    CMP #$61
2588  A2 00    LDX #$00
258A  90 0B    BCC L2597
258C  B2 20    LDA ($20)
258E  C9 7B    CMP #$7B
2590  B0 05    BCS L2597
2592  38       SEC
2593  E9 20    SBC #$20
2595  92 20    STA ($20)

L2597:
2597  B2 20    LDA ($20)
2599  4C CD 61 JMP incsp1

L259C:
259C  20 9C 63 JSR pushax
259F  20 44 61 JSR decsp2
25A2  A9 00    LDA #$00
25A4  92 20    STA ($20)
25A6  A0 01    LDY #$01
25A8  91 20    STA ($20),Y
25AA  80 64    BRA L2610
25AC  A0 02    LDY #$02
25AE  B1 20    LDA ($20),Y
25B0  18       CLC
25B1  72 20    ADC ($20)
25B3  85 28    STA $28
25B5  C8       INY
25B6  B1 20    LDA ($20),Y
25B8  A0 01    LDY #$01
25BA  71 20    ADC ($20),Y
25BC  85 29    STA $29
25BE  B2 28    LDA ($28)
25C0  D0 04    BNE L25C6
25C2  AA       TAX
25C3  4C 03 62 JMP incsp8

L25C6:
25C6  A0 06    LDY #$06
25C8  B1 20    LDA ($20),Y
25CA  18       CLC
25CB  72 20    ADC ($20)
25CD  85 28    STA $28
25CF  C8       INY
25D0  B1 20    LDA ($20),Y
25D2  A0 01    LDY #$01
25D4  71 20    ADC ($20),Y
25D6  18       CLC
25D7  69 64    ADC #$64
25D9  85 29    STA $29
25DB  A0 29    LDY #$29
25DD  B1 28    LDA ($28),Y
25DF  20 7D 25 JSR L257D
25E2  20 9C 63 JSR pushax
25E5  A0 04    LDY #$04
25E7  B1 20    LDA ($20),Y
25E9  A0 02    LDY #$02
25EB  18       CLC
25EC  71 20    ADC ($20),Y
25EE  85 28    STA $28
25F0  A0 05    LDY #$05
25F2  B1 20    LDA ($20),Y
25F4  A0 03    LDY #$03
25F6  71 20    ADC ($20),Y
25F8  85 29    STA $29
25FA  B2 28    LDA ($28)
25FC  20 9F 61 JSR tosicmp0
25FF  F0 06    BEQ L2607
2601  A2 00    LDX #$00
2603  8A       TXA
2604  4C 03 62 JMP incsp8

L2607:
2607  A2 00    LDX #$00
2609  A9 01    LDA #$01
260B  20 1C 61 JSR addeq0sp
260E  A0 01    LDY #$01

L2610:
2610  B1 20    LDA ($20),Y
2612  AA       TAX
2613  B2 20    LDA ($20)
2615  A0 04    LDY #$04
2617  D1 20    CMP ($20),Y
2619  8A       TXA
261A  C8       INY
261B  F1 20    SBC ($20),Y
261D  90 8D    BCC L25AC
261F  A0 02    LDY #$02
2621  B1 20    LDA ($20),Y
2623  18       CLC
2624  72 20    ADC ($20)
2626  85 28    STA $28
2628  C8       INY
2629  B1 20    LDA ($20),Y
262B  A0 01    LDY #$01
262D  71 20    ADC ($20),Y
262F  85 29    STA $29
2631  B2 28    LDA ($28)
2633  20 2D 63 JSR booleq
2636  4C 03 62 JMP incsp8

L2639:
2639  20 9C 63 JSR pushax
263C  80 09    BRA L2647
263E  A0 02    LDY #$02
2640  A2 00    LDX #$00
2642  A9 01    LDA #$01
2644  20 1E 61 JSR addeqysp

L2647:
2647  A0 03    LDY #$03
2649  B1 20    LDA ($20),Y
264B  AA       TAX
264C  88       DEY
264D  B1 20    LDA ($20),Y
264F  CD 69 64 CMP _nbox_line_len
2652  8A       TXA
2653  E9 00    SBC #$00
2655  B0 1A    BCS L2671
2657  C8       INY
2658  B1 20    LDA ($20),Y
265A  AA       TAX
265B  88       DEY
265C  B1 20    LDA ($20),Y
265E  85 28    STA $28
2660  8A       TXA
2661  18       CLC
2662  69 64    ADC #$64
2664  85 29    STA $29
2666  A0 29    LDY #$29
2668  B1 28    LDA ($28),Y
266A  20 63 25 JSR L2563
266D  C9 00    CMP #$00
266F  D0 CD    BNE L263E

L2671:
2671  A0 01    LDY #$01
2673  B1 20    LDA ($20),Y
2675  85 29    STA $29
2677  B2 20    LDA ($20)
2679  85 28    STA $28
267B  A0 03    LDY #$03
267D  B1 20    LDA ($20),Y
267F  AA       TAX
2680  88       DEY
2681  B1 20    LDA ($20),Y
2683  18       CLC
2684  69 29    ADC #$29
2686  A8       TAY
2687  8A       TXA
2688  69 64    ADC #$64
268A  AA       TAX
268B  98       TYA
268C  92 28    STA ($28)
268E  A0 01    LDY #$01
2690  8A       TXA
2691  91 28    STA ($28),Y
2693  B1 20    LDA ($20),Y
2695  85 29    STA $29
2697  B2 20    LDA ($20)
2699  85 28    STA $28
269B  AD 69 64 LDA _nbox_line_len
269E  38       SEC
269F  C8       INY
26A0  F1 20    SBC ($20),Y
26A2  48       PHA
26A3  A9 00    LDA #$00
26A5  C8       INY
26A6  F1 20    SBC ($20),Y
26A8  AA       TAX
26A9  68       PLA
26AA  88       DEY
26AB  91 28    STA ($28),Y
26AD  C8       INY
26AE  8A       TXA
26AF  91 28    STA ($28),Y
26B1  4C EF 61 JMP incsp4

L26B4:
26B4  20 86 63 JSR pusha
26B7  20 3B 61 JSR decsp1
26BA  A9 00    LDA #$00
26BC  92 20    STA ($20)
26BE  A2 00    LDX #$00
26C0  B2 20    LDA ($20)
26C2  C9 0C    CMP #$0C
26C4  B0 23    BCS L26E9
26C6  20 6C 63 JSR mulax6
26C9  18       CLC
26CA  69 EF    ADC #$EF
26CC  85 28    STA $28
26CE  8A       TXA
26CF  69 59    ADC #$59
26D1  85 29    STA $29
26D3  A0 02    LDY #$02
26D5  B1 28    LDA ($28),Y
26D7  88       DEY
26D8  D1 20    CMP ($20),Y
26DA  D0 07    BNE L26E3
26DC  A2 00    LDX #$00
26DE  B2 20    LDA ($20)
26E0  4C DC 61 JMP incsp2

L26E3:
26E3  18       CLC
26E4  98       TYA
26E5  72 20    ADC ($20)
26E7  80 D3    BRA L26BC

L26E9:
26E9  A9 0C    LDA #$0C
26EB  4C DC 61 JMP incsp2

L26EE:
26EE  20 9C 63 JSR pushax
26F1  A0 02    LDY #$02
26F3  B1 20    LDA ($20),Y
26F5  C9 0C    CMP #$0C
26F7  A2 00    LDX #$00
26F9  90 0A    BCC L2705
26FB  20 24 25 JSR _neosh_nbox_print_unknown
26FE  A2 00    LDX #$00
2700  A9 06    LDA #$06
2702  4C EA 61 JMP incsp3

L2705:
2705  B1 20    LDA ($20),Y
2707  20 6C 63 JSR mulax6
270A  18       CLC
270B  69 EF    ADC #$EF
270D  85 28    STA $28
270F  8A       TXA
2710  69 59    ADC #$59
2712  85 29    STA $29
2714  A0 05    LDY #$05
2716  B1 28    LDA ($28),Y
2718  AA       TAX
2719  88       DEY
271A  B1 28    LDA ($28),Y
271C  20 9C 63 JSR pushax
271F  A0 03    LDY #$03
2721  B1 20    LDA ($20),Y
2723  AA       TAX
2724  88       DEY
2725  B1 20    LDA ($20),Y
2727  48       PHA
2728  B2 20    LDA ($20)
272A  8D 27 64 STA $6427
272D  88       DEY
272E  B1 20    LDA ($20),Y
2730  8D 28 64 STA $6428
2733  68       PLA
2734  20 26 64 JSR jmpvec
2737  4C F4 61 JMP incsp5
273A  20 86 63 JSR pusha
273D  B2 20    LDA ($20)
273F  C9 20    CMP #$20
2741  F0 0A    BEQ L274D
2743  C9 09    CMP #$09
2745  F0 06    BEQ L274D
2747  A2 00    LDX #$00
2749  8A       TXA
274A  4C CD 61 JMP incsp1

L274D:
274D  A9 01    LDA #$01
274F  A2 00    LDX #$00
2751  4C CD 61 JMP incsp1
2754  20 51 61 JSR decsp3
2757  A0 01    LDY #$01
2759  A9 00    LDA #$00
275B  91 20    STA ($20),Y
275D  C8       INY
275E  91 20    STA ($20),Y
2760  20 5E 61 JSR decsp4
2763  A9 EE    LDA #$EE
2765  91 20    STA ($20),Y
2767  C8       INY
2768  A9 64    LDA #$64
276A  91 20    STA ($20),Y
276C  A9 3E    LDA #$3E
276E  92 20    STA ($20)
2770  A0 01    LDY #$01
2772  A9 00    LDA #$00
2774  91 20    STA ($20),Y
2776  A5 20    LDA $20
2778  A6 21    LDX $21
277A  18       CLC
277B  69 05    ADC #$05
277D  90 01    BCC L2780
277F  E8       INX

L2780:
2780  20 22 51 JSR _neox_getcwd
2783  92 20    STA ($20)
2785  B2 20    LDA ($20)
2787  D0 0F    BNE L2798
2789  A0 02    LDY #$02
278B  B1 20    LDA ($20),Y
278D  AA       TAX
278E  88       DEY
278F  B1 20    LDA ($20),Y
2791  C9 3F    CMP #$3F
2793  8A       TXA
2794  E9 00    SBC #$00
2796  90 15    BCC L27AD

L2798:
2798  9C 6E 65 STZ $656E
279B  9C 6F 65 STZ $656F
279E  A9 01    LDA #$01
27A0  20 86 63 JSR pusha
27A3  A9 67    LDA #$67
27A5  A2 5A    LDX #$5A
27A7  20 B2 57 JSR _neox_applet_write_string
27AA  4C EA 61 JMP incsp3

L27AD:
27AD  B1 20    LDA ($20),Y
27AF  C8       INY
27B0  11 20    ORA ($20),Y
27B2  F0 4F    BEQ L2803
27B4  20 44 61 JSR decsp2
27B7  A9 00    LDA #$00
27B9  92 20    STA ($20)
27BB  88       DEY
27BC  91 20    STA ($20),Y
27BE  A0 01    LDY #$01
27C0  B1 20    LDA ($20),Y
27C2  AA       TAX
27C3  B2 20    LDA ($20)
27C5  A0 03    LDY #$03
27C7  D1 20    CMP ($20),Y
27C9  8A       TXA
27CA  C8       INY
27CB  F1 20    SBC ($20),Y
27CD  B0 2F    BCS L27FE
27CF  A0 01    LDY #$01
27D1  B1 20    LDA ($20),Y
27D3  AA       TAX
27D4  B2 20    LDA ($20)
27D6  18       CLC
27D7  69 AE    ADC #$AE
27D9  85 22    STA $22
27DB  8A       TXA
27DC  69 64    ADC #$64
27DE  85 23    STA $23
27E0  A0 01    LDY #$01
27E2  B1 20    LDA ($20),Y
27E4  AA       TAX
27E5  B2 20    LDA ($20)
27E7  85 28    STA $28
27E9  8A       TXA
27EA  18       CLC
27EB  69 64    ADC #$64
27ED  85 29    STA $29
27EF  A0 EE    LDY #$EE
27F1  B1 28    LDA ($28),Y
27F3  92 22    STA ($22)
27F5  A2 00    LDX #$00
27F7  A9 01    LDA #$01
27F9  20 1C 61 JSR addeq0sp
27FC  80 C0    BRA L27BE

L27FE:
27FE  20 DC 61 JSR incsp2
2801  A0 02    LDY #$02

L2803:
2803  B1 20    LDA ($20),Y
2805  AA       TAX
2806  88       DEY
2807  B1 20    LDA ($20),Y
2809  18       CLC
280A  69 AE    ADC #$AE
280C  85 28    STA $28
280E  8A       TXA
280F  69 64    ADC #$64
2811  85 29    STA $29
2813  A9 3E    LDA #$3E
2815  92 28    STA ($28)
2817  C8       INY
2818  B1 20    LDA ($20),Y
281A  AA       TAX
281B  88       DEY
281C  B1 20    LDA ($20),Y
281E  1A       INC
281F  D0 01    BNE L2822
2821  E8       INX

L2822:
2822  8D 6E 65 STA $656E
2825  8E 6F 65 STX $656F
2828  18       CLC
2829  69 AE    ADC #$AE
282B  85 28    STA $28
282D  8A       TXA
282E  69 64    ADC #$64
2830  85 29    STA $29
2832  A9 20    LDA #$20
2834  92 28    STA ($28)
2836  20 51 61 JSR decsp3
2839  98       TYA
283A  C8       INY
283B  91 20    STA ($20),Y
283D  A9 AE    LDA #$AE
283F  92 20    STA ($20)
2841  88       DEY
2842  A9 64    LDA #$64
2844  91 20    STA ($20),Y
2846  AD 6E 65 LDA $656E
2849  AE 6F 65 LDX $656F
284C  1A       INC
284D  D0 01    BNE L2850
284F  E8       INX

L2850:
2850  20 F9 56 JSR _neox_applet_write_all
2853  4C EA 61 JMP incsp3
2856  20 9C 63 JSR pushax
2859  20 51 61 JSR decsp3
285C  A0 01    LDY #$01
285E  A9 00    LDA #$00
2860  91 20    STA ($20),Y
2862  C8       INY
2863  91 20    STA ($20),Y
2865  20 6B 61 JSR decsp5
2868  A9 00    LDA #$00
286A  A0 04    LDY #$04
286C  91 20    STA ($20),Y
286E  A9 6E    LDA #$6E
2870  A0 02    LDY #$02
2872  91 20    STA ($20),Y
2874  C8       INY
2875  A9 64    LDA #$64
2877  91 20    STA ($20),Y
2879  A9 3F    LDA #$3F
287B  92 20    STA ($20)
287D  A0 01    LDY #$01
287F  A9 00    LDA #$00
2881  91 20    STA ($20),Y
2883  A5 20    LDA $20
2885  A6 21    LDX $21
2887  18       CLC
2888  69 06    ADC #$06
288A  90 01    BCC L288D
288C  E8       INX

L288D:
288D  20 64 4F JSR _neox_read
2890  92 20    STA ($20)
2892  B2 20    LDA ($20)
2894  F0 07    BEQ L289D
2896  A2 00    LDX #$00
2898  B2 20    LDA ($20)
289A  4C F4 61 JMP incsp5

L289D:
289D  A0 02    LDY #$02
289F  B1 20    LDA ($20),Y
28A1  AA       TAX
28A2  88       DEY
28A3  B1 20    LDA ($20),Y
28A5  C9 40    CMP #$40
28A7  8A       TXA
28A8  E9 00    SBC #$00
28AA  90 09    BCC L28B5
28AC  A9 3F    LDA #$3F
28AE  91 20    STA ($20),Y
28B0  A9 00    LDA #$00
28B2  C8       INY
28B3  91 20    STA ($20),Y

L28B5:
28B5  A0 02    LDY #$02
28B7  B1 20    LDA ($20),Y
28B9  AA       TAX
28BA  88       DEY
28BB  B1 20    LDA ($20),Y
28BD  18       CLC
28BE  69 6E    ADC #$6E
28C0  85 28    STA $28
28C2  8A       TXA
28C3  69 64    ADC #$64
28C5  85 29    STA $29
28C7  A9 00    LDA #$00
28C9  92 28    STA ($28)
28CB  A0 04    LDY #$04
28CD  B1 20    LDA ($20),Y
28CF  85 29    STA $29
28D1  88       DEY
28D2  B1 20    LDA ($20),Y
28D4  85 28    STA $28
28D6  88       DEY
28D7  B1 20    LDA ($20),Y
28D9  AA       TAX
28DA  88       DEY
28DB  B1 20    LDA ($20),Y
28DD  92 28    STA ($28)
28DF  A0 01    LDY #$01
28E1  8A       TXA
28E2  91 28    STA ($28),Y
28E4  A2 00    LDX #$00
28E6  8A       TXA
28E7  4C F4 61 JMP incsp5
28EA  20 9C 63 JSR pushax
28ED  20 44 61 JSR decsp2
28F0  AD 6E 65 LDA $656E
28F3  0D 6F 65 ORA $656F
28F6  F0 16    BEQ L290E
28F8  AD 6E 65 LDA $656E
28FB  38       SEC
28FC  A0 02    LDY #$02
28FE  F1 20    SBC ($20),Y
2900  85 30    STA $30
2902  AD 6F 65 LDA $656F
2905  C8       INY
2906  F1 20    SBC ($20),Y
2908  05 30    ORA $30
290A  F0 08    BEQ L2914
290C  90 06    BCC L2914

L290E:
290E  A2 00    LDX #$00
2910  8A       TXA
2911  4C EF 61 JMP incsp4

L2914:
2914  A9 00    LDA #$00
2916  92 20    STA ($20)
2918  A0 01    LDY #$01
291A  91 20    STA ($20),Y
291C  A0 01    LDY #$01
291E  B1 20    LDA ($20),Y
2920  AA       TAX
2921  B2 20    LDA ($20)
2923  CD 6E 65 CMP $656E
2926  8A       TXA
2927  ED 6F 65 SBC $656F
292A  B0 3D    BCS L2969
292C  A0 01    LDY #$01
292E  B1 20    LDA ($20),Y
2930  AA       TAX
2931  B2 20    LDA ($20)
2933  85 28    STA $28
2935  8A       TXA
2936  18       CLC
2937  69 64    ADC #$64
2939  85 29    STA $29
293B  A0 6E    LDY #$6E
293D  B1 28    LDA ($28),Y
293F  29 7F    AND #$7F
2941  85 22    STA $22
2943  A0 01    LDY #$01
2945  B1 20    LDA ($20),Y
2947  AA       TAX
2948  B2 20    LDA ($20)
294A  85 28    STA $28
294C  8A       TXA
294D  18       CLC
294E  69 64    ADC #$64
2950  85 29    STA $29
2952  A0 AE    LDY #$AE
2954  B1 28    LDA ($28),Y
2956  C5 22    CMP $22
2958  F0 06    BEQ L2960
295A  A2 00    LDX #$00
295C  8A       TXA
295D  4C EF 61 JMP incsp4

L2960:
2960  A2 00    LDX #$00
2962  A9 01    LDA #$01
2964  20 1C 61 JSR addeq0sp
2967  80 B3    BRA L291C

L2969:
2969  A2 00    LDX #$00
296B  98       TYA
296C  4C EF 61 JMP incsp4
296F  20 9C 63 JSR pushax
2972  20 5E 61 JSR decsp4
2975  A0 02    LDY #$02
2977  A9 00    LDA #$00
2979  91 20    STA ($20),Y
297B  C8       INY
297C  91 20    STA ($20),Y
297E  92 20    STA ($20)
2980  A0 01    LDY #$01
2982  91 20    STA ($20),Y
2984  A0 05    LDY #$05
2986  B1 20    LDA ($20),Y
2988  AA       TAX
2989  88       DEY
298A  B1 20    LDA ($20),Y
298C  20 EA 28 JSR L28EA
298F  C9 00    CMP #$00
2991  F0 16    BEQ L29A9
2993  AD 6E 65 LDA $656E
2996  AE 6F 65 LDX $656F
2999  A0 02    LDY #$02
299B  20 E6 63 JSR staxysp
299E  80 09    BRA L29A9
29A0  A0 02    LDY #$02
29A2  A2 00    LDX #$00
29A4  A9 01    LDA #$01
29A6  20 1E 61 JSR addeqysp

L29A9:
29A9  A0 03    LDY #$03
29AB  B1 20    LDA ($20),Y
29AD  AA       TAX
29AE  88       DEY
29AF  B1 20    LDA ($20),Y
29B1  A0 04    LDY #$04
29B3  D1 20    CMP ($20),Y
29B5  8A       TXA
29B6  C8       INY
29B7  F1 20    SBC ($20),Y
29B9  B0 75    BCS L2A30
29BB  A0 03    LDY #$03
29BD  B1 20    LDA ($20),Y
29BF  AA       TAX
29C0  88       DEY
29C1  B1 20    LDA ($20),Y
29C3  85 28    STA $28
29C5  8A       TXA
29C6  18       CLC
29C7  69 64    ADC #$64
29C9  85 29    STA $29
29CB  A0 6E    LDY #$6E
29CD  B1 28    LDA ($28),Y
29CF  29 7F    AND #$7F
29D1  20 3A 27 JSR L273A
29D4  C9 00    CMP #$00
29D6  D0 C8    BNE L29A0
29D8  80 56    BRA L2A30
29DA  20 3B 61 JSR decsp1
29DD  A0 04    LDY #$04
29DF  B1 20    LDA ($20),Y
29E1  AA       TAX
29E2  88       DEY
29E3  B1 20    LDA ($20),Y
29E5  85 28    STA $28
29E7  8A       TXA
29E8  18       CLC
29E9  69 64    ADC #$64
29EB  85 29    STA $29
29ED  A0 6E    LDY #$6E
29EF  B1 28    LDA ($28),Y
29F1  29 7F    AND #$7F
29F3  92 20    STA ($20)
29F5  B2 20    LDA ($20)
29F7  F0 08    BEQ L2A01
29F9  C9 0D    CMP #$0D
29FB  F0 04    BEQ L2A01
29FD  C9 0A    CMP #$0A
29FF  D0 05    BNE L2A06

L2A01:
2A01  20 CD 61 JSR incsp1
2A04  80 4A    BRA L2A50

L2A06:
2A06  A0 02    LDY #$02
2A08  B1 20    LDA ($20),Y
2A0A  AA       TAX
2A0B  88       DEY
2A0C  B1 20    LDA ($20),Y
2A0E  18       CLC
2A0F  69 29    ADC #$29
2A11  85 28    STA $28
2A13  8A       TXA
2A14  69 64    ADC #$64
2A16  85 29    STA $29
2A18  B2 20    LDA ($20)
2A1A  92 28    STA ($28)
2A1C  A0 01    LDY #$01
2A1E  A2 00    LDX #$00
2A20  98       TYA
2A21  20 1E 61 JSR addeqysp
2A24  A0 03    LDY #$03
2A26  A2 00    LDX #$00
2A28  A9 01    LDA #$01
2A2A  20 1E 61 JSR addeqysp
2A2D  20 CD 61 JSR incsp1

L2A30:
2A30  A0 03    LDY #$03
2A32  B1 20    LDA ($20),Y
2A34  AA       TAX
2A35  88       DEY
2A36  B1 20    LDA ($20),Y
2A38  A0 04    LDY #$04
2A3A  D1 20    CMP ($20),Y
2A3C  8A       TXA
2A3D  C8       INY
2A3E  F1 20    SBC ($20),Y
2A40  B0 0E    BCS L2A50
2A42  A0 01    LDY #$01
2A44  B1 20    LDA ($20),Y
2A46  C9 00    CMP #$00
2A48  D0 04    BNE L2A4E
2A4A  B2 20    LDA ($20)
2A4C  C9 3F    CMP #$3F

L2A4E:
2A4E  90 8A    BCC L29DA

L2A50:
2A50  A0 01    LDY #$01
2A52  B1 20    LDA ($20),Y
2A54  AA       TAX
2A55  B2 20    LDA ($20)
2A57  18       CLC
2A58  69 29    ADC #$29
2A5A  85 28    STA $28
2A5C  8A       TXA
2A5D  69 64    ADC #$64
2A5F  85 29    STA $29
2A61  A9 00    LDA #$00
2A63  92 28    STA ($28)
2A65  B2 20    LDA ($20)
2A67  8D 69 64 STA _nbox_line_len
2A6A  4C F9 61 JMP incsp6
2A6D  9C 70 65 STZ $6570
2A70  9C B1 65 STZ $65B1
2A73  9C F2 65 STZ $65F2
2A76  9C 71 65 STZ $6571
2A79  9C B2 65 STZ $65B2
2A7C  9C F3 65 STZ $65F3
2A7F  9C 33 66 STZ $6633
2A82  A9 FF    LDA #$FF
2A84  8D 34 66 STA $6634
2A87  8D 35 66 STA $6635
2A8A  8D 36 66 STA $6636
2A8D  60       RTS
2A8E  20 9C 63 JSR pushax
2A91  20 44 61 JSR decsp2
2A94  A0 05    LDY #$05
2A96  B1 20    LDA ($20),Y
2A98  85 29    STA $29
2A9A  88       DEY
2A9B  B1 20    LDA ($20),Y
2A9D  85 28    STA $28
2A9F  A0 01    LDY #$01
2AA1  B1 28    LDA ($28),Y
2AA3  AA       TAX
2AA4  B2 28    LDA ($28)
2AA6  20 E4 63 JSR stax0sp
2AA9  80 07    BRA L2AB2
2AAB  A2 00    LDX #$00
2AAD  A9 01    LDA #$01
2AAF  20 1C 61 JSR addeq0sp

L2AB2:
2AB2  A0 01    LDY #$01
2AB4  B1 20    LDA ($20),Y
2AB6  AA       TAX
2AB7  B2 20    LDA ($20)
2AB9  85 28    STA $28
2ABB  8A       TXA
2ABC  18       CLC
2ABD  69 64    ADC #$64
2ABF  85 29    STA $29
2AC1  A0 29    LDY #$29
2AC3  B1 28    LDA ($28),Y
2AC5  F0 1A    BEQ L2AE1
2AC7  A0 01    LDY #$01
2AC9  B1 20    LDA ($20),Y
2ACB  AA       TAX
2ACC  B2 20    LDA ($20)
2ACE  85 28    STA $28
2AD0  8A       TXA
2AD1  18       CLC
2AD2  69 64    ADC #$64
2AD4  85 29    STA $29
2AD6  A0 29    LDY #$29
2AD8  B1 28    LDA ($28),Y
2ADA  20 3A 27 JSR L273A
2ADD  C9 00    CMP #$00
2ADF  D0 CA    BNE L2AAB

L2AE1:
2AE1  A0 01    LDY #$01
2AE3  B1 20    LDA ($20),Y
2AE5  AA       TAX
2AE6  B2 20    LDA ($20)
2AE8  85 28    STA $28
2AEA  8A       TXA
2AEB  18       CLC
2AEC  69 64    ADC #$64
2AEE  85 29    STA $29
2AF0  A0 29    LDY #$29
2AF2  B1 28    LDA ($28),Y
2AF4  D0 1F    BNE L2B15
2AF6  A0 05    LDY #$05
2AF8  B1 20    LDA ($20),Y
2AFA  85 29    STA $29
2AFC  88       DEY
2AFD  B1 20    LDA ($20),Y
2AFF  85 28    STA $28
2B01  A0 01    LDY #$01
2B03  B1 20    LDA ($20),Y
2B05  AA       TAX
2B06  B2 20    LDA ($20)
2B08  92 28    STA ($28)
2B0A  A0 01    LDY #$01
2B0C  8A       TXA
2B0D  91 28    STA ($28),Y
2B0F  A2 00    LDX #$00
2B11  8A       TXA
2B12  4C F9 61 JMP incsp6

L2B15:
2B15  A0 03    LDY #$03
2B17  B1 20    LDA ($20),Y
2B19  85 29    STA $29
2B1B  88       DEY
2B1C  B1 20    LDA ($20),Y
2B1E  85 28    STA $28
2B20  88       DEY
2B21  B1 20    LDA ($20),Y
2B23  AA       TAX
2B24  B2 20    LDA ($20)
2B26  92 28    STA ($28)
2B28  A0 01    LDY #$01
2B2A  8A       TXA
2B2B  91 28    STA ($28),Y
2B2D  A0 03    LDY #$03
2B2F  B1 20    LDA ($20),Y
2B31  85 29    STA $29
2B33  88       DEY
2B34  B1 20    LDA ($20),Y
2B36  85 28    STA $28
2B38  A9 00    LDA #$00
2B3A  91 28    STA ($28),Y
2B3C  C8       INY
2B3D  91 28    STA ($28),Y
2B3F  80 28    BRA L2B69
2B41  A0 03    LDY #$03
2B43  B1 20    LDA ($20),Y
2B45  AA       TAX
2B46  88       DEY
2B47  B1 20    LDA ($20),Y
2B49  85 22    STA $22
2B4B  86 23    STX $23
2B4D  85 28    STA $28
2B4F  86 29    STX $29
2B51  C8       INY
2B52  B1 28    LDA ($28),Y
2B54  AA       TAX
2B55  88       DEY
2B56  B1 28    LDA ($28),Y
2B58  1A       INC
2B59  D0 01    BNE L2B5C
2B5B  E8       INX

L2B5C:
2B5C  91 22    STA ($22),Y
2B5E  C8       INY
2B5F  8A       TXA
2B60  91 22    STA ($22),Y
2B62  A2 00    LDX #$00
2B64  A9 01    LDA #$01
2B66  20 1C 61 JSR addeq0sp

L2B69:
2B69  A0 01    LDY #$01
2B6B  B1 20    LDA ($20),Y
2B6D  AA       TAX
2B6E  B2 20    LDA ($20)
2B70  85 28    STA $28
2B72  8A       TXA
2B73  18       CLC
2B74  69 64    ADC #$64
2B76  85 29    STA $29
2B78  A0 29    LDY #$29
2B7A  B1 28    LDA ($28),Y
2B7C  F0 1A    BEQ L2B98
2B7E  A0 01    LDY #$01
2B80  B1 20    LDA ($20),Y
2B82  AA       TAX
2B83  B2 20    LDA ($20)
2B85  85 28    STA $28
2B87  8A       TXA
2B88  18       CLC
2B89  69 64    ADC #$64
2B8B  85 29    STA $29
2B8D  A0 29    LDY #$29
2B8F  B1 28    LDA ($28),Y
2B91  20 3A 27 JSR L273A
2B94  C9 00    CMP #$00
2B96  F0 A9    BEQ L2B41

L2B98:
2B98  A0 05    LDY #$05
2B9A  B1 20    LDA ($20),Y
2B9C  85 29    STA $29
2B9E  88       DEY
2B9F  B1 20    LDA ($20),Y
2BA1  85 28    STA $28
2BA3  A0 01    LDY #$01
2BA5  B1 20    LDA ($20),Y
2BA7  AA       TAX
2BA8  B2 20    LDA ($20)
2BAA  92 28    STA ($28)
2BAC  A0 01    LDY #$01
2BAE  8A       TXA
2BAF  91 28    STA ($28),Y
2BB1  A2 00    LDX #$00
2BB3  98       TYA
2BB4  4C F9 61 JMP incsp6
2BB7  20 9C 63 JSR pushax
2BBA  20 44 61 JSR decsp2
2BBD  A0 09    LDY #$09
2BBF  B1 20    LDA ($20),Y
2BC1  85 29    STA $29
2BC3  88       DEY
2BC4  B1 20    LDA ($20),Y
2BC6  85 28    STA $28
2BC8  A0 01    LDY #$01
2BCA  B1 28    LDA ($28),Y
2BCC  AA       TAX
2BCD  B2 28    LDA ($28)
2BCF  20 E4 63 JSR stax0sp
2BD2  85 28    STA $28
2BD4  8A       TXA
2BD5  18       CLC
2BD6  69 64    ADC #$64
2BD8  85 29    STA $29
2BDA  A0 29    LDY #$29
2BDC  B1 28    LDA ($28),Y
2BDE  C9 3C    CMP #$3C
2BE0  D0 2C    BNE L2C0E
2BE2  A0 07    LDY #$07
2BE4  B1 20    LDA ($20),Y
2BE6  85 29    STA $29
2BE8  88       DEY
2BE9  B1 20    LDA ($20),Y
2BEB  85 28    STA $28
2BED  A9 00    LDA #$00
2BEF  92 28    STA ($28)
2BF1  88       DEY
2BF2  B1 20    LDA ($20),Y
2BF4  85 29    STA $29
2BF6  88       DEY
2BF7  B1 20    LDA ($20),Y
2BF9  85 28    STA $28
2BFB  A9 01    LDA #$01
2BFD  92 28    STA ($28)
2BFF  88       DEY
2C00  B1 20    LDA ($20),Y
2C02  85 29    STA $29
2C04  88       DEY
2C05  B1 20    LDA ($20),Y
2C07  85 28    STA $28
2C09  A9 01    LDA #$01
2C0B  4C 8B 2D JMP L2D8B

L2C0E:
2C0E  A0 01    LDY #$01
2C10  B1 20    LDA ($20),Y
2C12  AA       TAX
2C13  B2 20    LDA ($20)
2C15  85 28    STA $28
2C17  8A       TXA
2C18  18       CLC
2C19  69 64    ADC #$64
2C1B  85 29    STA $29
2C1D  A0 29    LDY #$29
2C1F  B1 28    LDA ($28),Y
2C21  C9 3E    CMP #$3E
2C23  F0 03    BEQ L2C28
2C25  4C B0 2C JMP L2CB0

L2C28:
2C28  A0 07    LDY #$07
2C2A  B1 20    LDA ($20),Y
2C2C  85 29    STA $29
2C2E  88       DEY
2C2F  B1 20    LDA ($20),Y
2C31  85 28    STA $28
2C33  A9 01    LDA #$01
2C35  92 28    STA ($28)
2C37  88       DEY
2C38  B1 20    LDA ($20),Y
2C3A  85 29    STA $29
2C3C  88       DEY
2C3D  B1 20    LDA ($20),Y
2C3F  85 28    STA $28
2C41  A9 02    LDA #$02
2C43  92 28    STA ($28)
2C45  88       DEY
2C46  B1 20    LDA ($20),Y
2C48  85 29    STA $29
2C4A  88       DEY
2C4B  B1 20    LDA ($20),Y
2C4D  85 28    STA $28
2C4F  A9 01    LDA #$01
2C51  92 28    STA ($28)
2C53  88       DEY
2C54  3A       DEC
2C55  91 28    STA ($28),Y
2C57  A0 09    LDY #$09
2C59  B1 20    LDA ($20),Y
2C5B  85 29    STA $29
2C5D  88       DEY
2C5E  B1 20    LDA ($20),Y
2C60  85 28    STA $28
2C62  A0 03    LDY #$03
2C64  B1 28    LDA ($28),Y
2C66  AA       TAX
2C67  88       DEY
2C68  B1 28    LDA ($28),Y
2C6A  C9 02    CMP #$02
2C6C  8A       TXA
2C6D  E9 00    SBC #$00
2C6F  A2 00    LDX #$00
2C71  B0 03    BCS L2C76
2C73  4C 94 2D JMP L2D94

L2C76:
2C76  88       DEY
2C77  B1 20    LDA ($20),Y
2C79  AA       TAX
2C7A  B2 20    LDA ($20)
2C7C  1A       INC
2C7D  D0 01    BNE L2C80
2C7F  E8       INX

L2C80:
2C80  85 28    STA $28
2C82  8A       TXA
2C83  18       CLC
2C84  69 64    ADC #$64
2C86  85 29    STA $29
2C88  A0 29    LDY #$29
2C8A  B1 28    LDA ($28),Y
2C8C  C9 3E    CMP #$3E
2C8E  F0 03    BEQ L2C93
2C90  4C 92 2D JMP L2D92

L2C93:
2C93  A0 05    LDY #$05
2C95  B1 20    LDA ($20),Y
2C97  85 29    STA $29
2C99  88       DEY
2C9A  B1 20    LDA ($20),Y
2C9C  85 28    STA $28
2C9E  A9 03    LDA #$03
2CA0  92 28    STA ($28)
2CA2  88       DEY
2CA3  B1 20    LDA ($20),Y
2CA5  85 29    STA $29
2CA7  88       DEY
2CA8  B1 20    LDA ($20),Y
2CAA  85 28    STA $28
2CAC  98       TYA
2CAD  4C 8B 2D JMP L2D8B

L2CB0:
2CB0  A0 01    LDY #$01
2CB2  B1 20    LDA ($20),Y
2CB4  AA       TAX
2CB5  B2 20    LDA ($20)
2CB7  85 28    STA $28
2CB9  8A       TXA
2CBA  18       CLC
2CBB  69 64    ADC #$64
2CBD  85 29    STA $29
2CBF  A0 29    LDY #$29
2CC1  A2 00    LDX #$00
2CC3  B1 28    LDA ($28),Y
2CC5  C9 32    CMP #$32
2CC7  D0 3C    BNE L2D05
2CC9  A0 09    LDY #$09
2CCB  B1 20    LDA ($20),Y
2CCD  85 29    STA $29
2CCF  88       DEY
2CD0  B1 20    LDA ($20),Y
2CD2  85 28    STA $28
2CD4  A0 03    LDY #$03
2CD6  B1 28    LDA ($28),Y
2CD8  AA       TAX
2CD9  88       DEY
2CDA  B1 28    LDA ($28),Y
2CDC  C9 02    CMP #$02
2CDE  8A       TXA
2CDF  E9 00    SBC #$00
2CE1  A9 00    LDA #$00
2CE3  AA       TAX
2CE4  B0 03    BCS L2CE9
2CE6  4C 96 2D JMP L2D96

L2CE9:
2CE9  88       DEY
2CEA  B1 20    LDA ($20),Y
2CEC  AA       TAX
2CED  B2 20    LDA ($20)
2CEF  1A       INC
2CF0  D0 01    BNE L2CF3
2CF2  E8       INX

L2CF3:
2CF3  85 28    STA $28
2CF5  8A       TXA
2CF6  18       CLC
2CF7  69 64    ADC #$64
2CF9  85 29    STA $29
2CFB  A0 29    LDY #$29
2CFD  B1 28    LDA ($28),Y
2CFF  C9 3E    CMP #$3E
2D01  F0 06    BEQ L2D09
2D03  A2 00    LDX #$00

L2D05:
2D05  8A       TXA
2D06  4C 96 2D JMP L2D96

L2D09:
2D09  A0 07    LDY #$07
2D0B  B1 20    LDA ($20),Y
2D0D  85 29    STA $29
2D0F  88       DEY
2D10  B1 20    LDA ($20),Y
2D12  85 28    STA $28
2D14  A9 02    LDA #$02
2D16  92 28    STA ($28)
2D18  88       DEY
2D19  B1 20    LDA ($20),Y
2D1B  85 29    STA $29
2D1D  88       DEY
2D1E  B1 20    LDA ($20),Y
2D20  85 28    STA $28
2D22  A9 02    LDA #$02
2D24  92 28    STA ($28)
2D26  88       DEY
2D27  B1 20    LDA ($20),Y
2D29  85 29    STA $29
2D2B  88       DEY
2D2C  B1 20    LDA ($20),Y
2D2E  85 28    STA $28
2D30  98       TYA
2D31  92 28    STA ($28)
2D33  88       DEY
2D34  A9 00    LDA #$00
2D36  91 28    STA ($28),Y
2D38  A0 09    LDY #$09
2D3A  B1 20    LDA ($20),Y
2D3C  85 29    STA $29
2D3E  88       DEY
2D3F  B1 20    LDA ($20),Y
2D41  85 28    STA $28
2D43  A0 03    LDY #$03
2D45  B1 28    LDA ($28),Y
2D47  AA       TAX
2D48  88       DEY
2D49  B1 28    LDA ($28),Y
2D4B  C9 03    CMP #$03
2D4D  8A       TXA
2D4E  E9 00    SBC #$00
2D50  A2 00    LDX #$00
2D52  90 40    BCC L2D94
2D54  88       DEY
2D55  B1 20    LDA ($20),Y
2D57  AA       TAX
2D58  B2 20    LDA ($20)
2D5A  18       CLC
2D5B  69 02    ADC #$02
2D5D  90 01    BCC L2D60
2D5F  E8       INX

L2D60:
2D60  85 28    STA $28
2D62  8A       TXA
2D63  18       CLC
2D64  69 64    ADC #$64
2D66  85 29    STA $29
2D68  A0 29    LDY #$29
2D6A  B1 28    LDA ($28),Y
2D6C  C9 3E    CMP #$3E
2D6E  D0 22    BNE L2D92
2D70  A0 05    LDY #$05
2D72  B1 20    LDA ($20),Y
2D74  85 29    STA $29
2D76  88       DEY
2D77  B1 20    LDA ($20),Y
2D79  85 28    STA $28
2D7B  A9 03    LDA #$03
2D7D  92 28    STA ($28)
2D7F  88       DEY
2D80  B1 20    LDA ($20),Y
2D82  85 29    STA $29
2D84  88       DEY
2D85  B1 20    LDA ($20),Y
2D87  85 28    STA $28
2D89  A9 03    LDA #$03

L2D8B:
2D8B  92 28    STA ($28)
2D8D  88       DEY
2D8E  A9 00    LDA #$00
2D90  91 28    STA ($28),Y

L2D92:
2D92  A2 00    LDX #$00

L2D94:
2D94  A9 01    LDA #$01

L2D96:
2D96  A0 0A    LDY #$0A
2D98  4C 2E 61 JMP addysp
2D9B  20 86 63 JSR pusha
2D9E  A2 00    LDX #$00
2DA0  B2 20    LDA ($20)
2DA2  D0 07    BNE L2DAB
2DA4  A9 70    LDA #$70
2DA6  A2 65    LDX #$65
2DA8  4C CD 61 JMP incsp1

L2DAB:
2DAB  B2 20    LDA ($20)
2DAD  C9 01    CMP #$01
2DAF  D0 07    BNE L2DB8
2DB1  A9 B1    LDA #$B1
2DB3  A2 65    LDX #$65
2DB5  4C CD 61 JMP incsp1

L2DB8:
2DB8  B2 20    LDA ($20)
2DBA  C9 02    CMP #$02
2DBC  D0 07    BNE L2DC5
2DBE  A9 F2    LDA #$F2
2DC0  A2 65    LDX #$65
2DC2  4C CD 61 JMP incsp1

L2DC5:
2DC5  8A       TXA
2DC6  4C CD 61 JMP incsp1
2DC9  20 9C 63 JSR pushax
2DCC  20 44 61 JSR decsp2
2DCF  A0 07    LDY #$07
2DD1  B1 20    LDA ($20),Y
2DD3  C8       INY
2DD4  11 20    ORA ($20),Y
2DD6  F0 23    BEQ L2DFB
2DD8  B1 20    LDA ($20),Y
2DDA  85 29    STA $29
2DDC  88       DEY
2DDD  B1 20    LDA ($20),Y
2DDF  85 28    STA $28
2DE1  B2 28    LDA ($28)
2DE3  D0 16    BNE L2DFB
2DE5  A0 02    LDY #$02
2DE7  B1 20    LDA ($20),Y
2DE9  C8       INY
2DEA  11 20    ORA ($20),Y
2DEC  F0 0D    BEQ L2DFB
2DEE  B1 20    LDA ($20),Y
2DF0  AA       TAX
2DF1  88       DEY
2DF2  B1 20    LDA ($20),Y
2DF4  C9 40    CMP #$40
2DF6  8A       TXA
2DF7  E9 00    SBC #$00
2DF9  90 06    BCC L2E01

L2DFB:
2DFB  A2 00    LDX #$00
2DFD  8A       TXA
2DFE  4C 9A 2E JMP L2E9A

L2E01:
2E01  A9 00    LDA #$00
2E03  92 20    STA ($20)
2E05  88       DEY
2E06  91 20    STA ($20),Y
2E08  A0 01    LDY #$01
2E0A  B1 20    LDA ($20),Y
2E0C  AA       TAX
2E0D  B2 20    LDA ($20)
2E0F  C8       INY
2E10  D1 20    CMP ($20),Y
2E12  8A       TXA
2E13  C8       INY
2E14  F1 20    SBC ($20),Y
2E16  B0 45    BCS L2E5D
2E18  A0 08    LDY #$08
2E1A  B1 20    LDA ($20),Y
2E1C  AA       TAX
2E1D  88       DEY
2E1E  B1 20    LDA ($20),Y
2E20  1A       INC
2E21  D0 01    BNE L2E24
2E23  E8       INX

L2E24:
2E24  85 28    STA $28
2E26  86 29    STX $29
2E28  A0 01    LDY #$01
2E2A  B1 20    LDA ($20),Y
2E2C  AA       TAX
2E2D  B2 20    LDA ($20)
2E2F  18       CLC
2E30  65 28    ADC $28
2E32  85 22    STA $22
2E34  8A       TXA
2E35  65 29    ADC $29
2E37  85 23    STA $23
2E39  A0 04    LDY #$04
2E3B  B1 20    LDA ($20),Y
2E3D  18       CLC
2E3E  72 20    ADC ($20)
2E40  85 28    STA $28
2E42  C8       INY
2E43  B1 20    LDA ($20),Y
2E45  A0 01    LDY #$01
2E47  71 20    ADC ($20),Y
2E49  18       CLC
2E4A  69 64    ADC #$64
2E4C  85 29    STA $29
2E4E  A0 29    LDY #$29
2E50  B1 28    LDA ($28),Y
2E52  92 22    STA ($22)
2E54  A2 00    LDX #$00
2E56  A9 01    LDA #$01
2E58  20 1C 61 JSR addeq0sp
2E5B  80 AB    BRA L2E08

L2E5D:
2E5D  A0 08    LDY #$08
2E5F  B1 20    LDA ($20),Y
2E61  AA       TAX
2E62  88       DEY
2E63  B1 20    LDA ($20),Y
2E65  1A       INC
2E66  D0 01    BNE L2E69
2E68  E8       INX

L2E69:
2E69  85 28    STA $28
2E6B  86 29    STX $29
2E6D  A0 03    LDY #$03
2E6F  B1 20    LDA ($20),Y
2E71  AA       TAX
2E72  88       DEY
2E73  B1 20    LDA ($20),Y
2E75  18       CLC
2E76  65 28    ADC $28
2E78  85 28    STA $28
2E7A  8A       TXA
2E7B  65 29    ADC $29
2E7D  85 29    STA $29
2E7F  A9 00    LDA #$00
2E81  92 28    STA ($28)
2E83  A0 08    LDY #$08
2E85  B1 20    LDA ($20),Y
2E87  85 29    STA $29
2E89  88       DEY
2E8A  B1 20    LDA ($20),Y
2E8C  85 28    STA $28
2E8E  88       DEY
2E8F  B1 20    LDA ($20),Y
2E91  92 28    STA ($28)
2E93  A9 01    LDA #$01
2E95  8D 33 66 STA $6633
2E98  A2 00    LDX #$00

L2E9A:
2E9A  A0 09    LDY #$09
2E9C  4C 2E 61 JMP addysp
2E9F  20 9C 63 JSR pushax
2EA2  20 44 61 JSR decsp2
2EA5  A0 03    LDY #$03
2EA7  B1 20    LDA ($20),Y
2EA9  85 29    STA $29
2EAB  88       DEY
2EAC  B1 20    LDA ($20),Y
2EAE  85 28    STA $28
2EB0  88       DEY
2EB1  B1 28    LDA ($28),Y
2EB3  AA       TAX
2EB4  B2 28    LDA ($28)
2EB6  E0 00    CPX #$00
2EB8  D0 04    BNE L2EBE
2EBA  C9 00    CMP #$00
2EBC  F0 5E    BEQ L2F1C

L2EBE:
2EBE  A0 03    LDY #$03
2EC0  B1 20    LDA ($20),Y
2EC2  85 29    STA $29
2EC4  88       DEY
2EC5  B1 20    LDA ($20),Y
2EC7  85 28    STA $28
2EC9  88       DEY
2ECA  B1 28    LDA ($28),Y
2ECC  AA       TAX
2ECD  B2 28    LDA ($28)
2ECF  C9 3F    CMP #$3F
2ED1  8A       TXA
2ED2  E9 00    SBC #$00
2ED4  90 06    BCC L2EDC
2ED6  A2 00    LDX #$00
2ED8  8A       TXA
2ED9  4C F9 61 JMP incsp6

L2EDC:
2EDC  A0 03    LDY #$03
2EDE  B1 20    LDA ($20),Y
2EE0  85 29    STA $29
2EE2  88       DEY
2EE3  B1 20    LDA ($20),Y
2EE5  85 28    STA $28
2EE7  88       DEY
2EE8  B1 28    LDA ($28),Y
2EEA  AA       TAX
2EEB  B2 28    LDA ($28)
2EED  18       CLC
2EEE  69 2E    ADC #$2E
2EF0  85 28    STA $28
2EF2  8A       TXA
2EF3  69 65    ADC #$65
2EF5  85 29    STA $29
2EF7  A9 20    LDA #$20
2EF9  92 28    STA ($28)
2EFB  A0 03    LDY #$03
2EFD  B1 20    LDA ($20),Y
2EFF  AA       TAX
2F00  88       DEY
2F01  B1 20    LDA ($20),Y
2F03  85 22    STA $22
2F05  86 23    STX $23
2F07  85 28    STA $28
2F09  86 29    STX $29
2F0B  88       DEY
2F0C  B1 28    LDA ($28),Y
2F0E  AA       TAX
2F0F  B2 28    LDA ($28)
2F11  1A       INC
2F12  D0 01    BNE L2F15
2F14  E8       INX

L2F15:
2F15  92 22    STA ($22)
2F17  A0 01    LDY #$01
2F19  8A       TXA
2F1A  91 22    STA ($22),Y

L2F1C:
2F1C  A0 03    LDY #$03
2F1E  B1 20    LDA ($20),Y
2F20  85 29    STA $29
2F22  88       DEY
2F23  B1 20    LDA ($20),Y
2F25  85 28    STA $28
2F27  88       DEY
2F28  B1 28    LDA ($28),Y
2F2A  AA       TAX
2F2B  B2 28    LDA ($28)
2F2D  85 22    STA $22
2F2F  86 23    STX $23
2F31  A0 05    LDY #$05
2F33  B1 20    LDA ($20),Y
2F35  85 29    STA $29
2F37  88       DEY
2F38  B1 20    LDA ($20),Y
2F3A  85 28    STA $28
2F3C  88       DEY
2F3D  B1 28    LDA ($28),Y
2F3F  AA       TAX
2F40  88       DEY
2F41  B1 28    LDA ($28),Y
2F43  18       CLC
2F44  65 22    ADC $22
2F46  48       PHA
2F47  8A       TXA
2F48  65 23    ADC $23
2F4A  AA       TAX
2F4B  68       PLA
2F4C  C9 40    CMP #$40
2F4E  8A       TXA
2F4F  E9 00    SBC #$00
2F51  90 06    BCC L2F59
2F53  A2 00    LDX #$00
2F55  8A       TXA
2F56  4C F9 61 JMP incsp6

L2F59:
2F59  A9 00    LDA #$00
2F5B  92 20    STA ($20)
2F5D  88       DEY
2F5E  91 20    STA ($20),Y
2F60  20 B2 63 JSR pushw0sp
2F63  A0 07    LDY #$07
2F65  B1 20    LDA ($20),Y
2F67  85 29    STA $29
2F69  88       DEY
2F6A  B1 20    LDA ($20),Y
2F6C  85 28    STA $28
2F6E  A0 03    LDY #$03
2F70  B1 28    LDA ($28),Y
2F72  AA       TAX
2F73  88       DEY
2F74  B1 28    LDA ($28),Y
2F76  20 A1 61 JSR tosicmp
2F79  B0 75    BCS L2FF0
2F7B  A0 03    LDY #$03
2F7D  B1 20    LDA ($20),Y
2F7F  85 29    STA $29
2F81  88       DEY
2F82  B1 20    LDA ($20),Y
2F84  85 28    STA $28
2F86  88       DEY
2F87  B1 28    LDA ($28),Y
2F89  AA       TAX
2F8A  B2 28    LDA ($28)
2F8C  18       CLC
2F8D  69 2E    ADC #$2E
2F8F  85 22    STA $22
2F91  8A       TXA
2F92  69 65    ADC #$65
2F94  85 23    STA $23
2F96  A0 05    LDY #$05
2F98  B1 20    LDA ($20),Y
2F9A  85 29    STA $29
2F9C  88       DEY
2F9D  B1 20    LDA ($20),Y
2F9F  85 28    STA $28
2FA1  A0 01    LDY #$01
2FA3  B1 28    LDA ($28),Y
2FA5  AA       TAX
2FA6  B2 28    LDA ($28)
2FA8  85 28    STA $28
2FAA  86 29    STX $29
2FAC  A0 01    LDY #$01
2FAE  B1 20    LDA ($20),Y
2FB0  AA       TAX
2FB1  B2 20    LDA ($20)
2FB3  18       CLC
2FB4  65 28    ADC $28
2FB6  85 28    STA $28
2FB8  8A       TXA
2FB9  65 29    ADC $29
2FBB  18       CLC
2FBC  69 64    ADC #$64
2FBE  85 29    STA $29
2FC0  A0 29    LDY #$29
2FC2  B1 28    LDA ($28),Y
2FC4  92 22    STA ($22)
2FC6  A0 03    LDY #$03
2FC8  B1 20    LDA ($20),Y
2FCA  AA       TAX
2FCB  88       DEY
2FCC  B1 20    LDA ($20),Y
2FCE  85 22    STA $22
2FD0  86 23    STX $23
2FD2  85 28    STA $28
2FD4  86 29    STX $29
2FD6  88       DEY
2FD7  B1 28    LDA ($28),Y
2FD9  AA       TAX
2FDA  B2 28    LDA ($28)
2FDC  1A       INC
2FDD  D0 01    BNE L2FE0
2FDF  E8       INX

L2FE0:
2FE0  92 22    STA ($22)
2FE2  A0 01    LDY #$01
2FE4  8A       TXA
2FE5  91 22    STA ($22),Y
2FE7  A2 00    LDX #$00
2FE9  98       TYA
2FEA  20 1C 61 JSR addeq0sp
2FED  4C 60 2F JMP L2F60

L2FF0:
2FF0  A2 00    LDX #$00
2FF2  A9 01    LDA #$01
2FF4  4C F9 61 JMP incsp6
2FF7  20 92 61 JSR decsp8
2FFA  20 6D 2A JSR L2A6D
2FFD  A0 06    LDY #$06
2FFF  A9 00    LDA #$00
3001  91 20    STA ($20),Y
3003  C8       INY
3004  91 20    STA ($20),Y
3006  A0 04    LDY #$04
3008  91 20    STA ($20),Y
300A  C8       INY
300B  91 20    STA ($20),Y
300D  4C BF 31 JMP L31BF
3010  A0 0A    LDY #$0A
3012  20 19 64 JSR subysp
3015  A5 20    LDA $20
3017  A6 21    LDX $21
3019  18       CLC
301A  69 0A    ADC #$0A
301C  90 01    BCC L301F
301E  E8       INX

L301F:
301F  A0 04    LDY #$04
3021  91 20    STA ($20),Y
3023  C8       INY
3024  8A       TXA
3025  91 20    STA ($20),Y
3027  A5 20    LDA $20
3029  A6 21    LDX $21
302B  18       CLC
302C  69 09    ADC #$09
302E  90 01    BCC L3031
3030  E8       INX

L3031:
3031  A0 02    LDY #$02
3033  91 20    STA ($20),Y
3035  C8       INY
3036  8A       TXA
3037  91 20    STA ($20),Y
3039  A5 20    LDA $20
303B  A6 21    LDX $21
303D  18       CLC
303E  69 08    ADC #$08
3040  90 01    BCC L3043
3042  E8       INX

L3043:
3043  92 20    STA ($20)
3045  A0 01    LDY #$01
3047  8A       TXA
3048  91 20    STA ($20),Y
304A  A5 20    LDA $20
304C  A6 21    LDX $21
304E  18       CLC
304F  69 06    ADC #$06
3051  90 01    BCC L3054
3053  E8       INX

L3054:
3054  20 B7 2B JSR L2BB7
3057  C9 00    CMP #$00
3059  D0 03    BNE L305E
305B  4C 98 31 JMP L3198

L305E:
305E  20 78 61 JSR decsp6
3061  A0 09    LDY #$09
3063  B1 20    LDA ($20),Y
3065  20 9B 2D JSR L2D9B
3068  20 E4 63 JSR stax0sp
306B  A0 0D    LDY #$0D
306D  B1 20    LDA ($20),Y
306F  AA       TAX
3070  88       DEY
3071  B1 20    LDA ($20),Y
3073  38       SEC
3074  A0 06    LDY #$06
3076  F1 20    SBC ($20),Y
3078  85 30    STA $30
307A  8A       TXA
307B  C8       INY
307C  F1 20    SBC ($20),Y
307E  05 30    ORA $30
3080  90 37    BCC L30B9
3082  F0 35    BEQ L30B9
3084  A0 0A    LDY #$0A
3086  B1 20    LDA ($20),Y
3088  A0 06    LDY #$06
308A  18       CLC
308B  71 20    ADC ($20),Y
308D  48       PHA
308E  A0 0B    LDY #$0B
3090  B1 20    LDA ($20),Y
3092  A0 07    LDY #$07
3094  71 20    ADC ($20),Y
3096  AA       TAX
3097  68       PLA
3098  A0 04    LDY #$04
309A  20 E6 63 JSR staxysp
309D  A0 0D    LDY #$0D
309F  B1 20    LDA ($20),Y
30A1  AA       TAX
30A2  88       DEY
30A3  B1 20    LDA ($20),Y
30A5  38       SEC
30A6  A0 06    LDY #$06
30A8  F1 20    SBC ($20),Y
30AA  48       PHA
30AB  8A       TXA
30AC  C8       INY
30AD  F1 20    SBC ($20),Y
30AF  AA       TAX
30B0  68       PLA
30B1  A0 02    LDY #$02
30B3  20 E6 63 JSR staxysp
30B6  4C 52 31 JMP L3152

L30B9:
30B9  20 92 61 JSR decsp8
30BC  A5 20    LDA $20
30BE  A6 21    LDX $21
30C0  18       CLC
30C1  69 18    ADC #$18
30C3  90 01    BCC L30C6
30C5  E8       INX

L30C6:
30C6  20 9C 63 JSR pushax
30C9  A5 20    LDA $20
30CB  A6 21    LDX $21
30CD  18       CLC
30CE  69 06    ADC #$06
30D0  90 01    BCC L30D3
30D2  E8       INX

L30D3:
30D3  20 8E 2A JSR L2A8E
30D6  C9 00    CMP #$00
30D8  D0 08    BNE L30E2
30DA  AA       TAX
30DB  A0 12    LDY #$12
30DD  A0 1A    LDY #$1A
30DF  4C 2E 61 JMP addysp

L30E2:
30E2  20 78 61 JSR decsp6
30E5  A5 20    LDA $20
30E7  A6 21    LDX $21
30E9  18       CLC
30EA  69 0A    ADC #$0A
30EC  90 01    BCC L30EF
30EE  E8       INX

L30EF:
30EF  A0 04    LDY #$04
30F1  91 20    STA ($20),Y
30F3  C8       INY
30F4  8A       TXA
30F5  91 20    STA ($20),Y
30F7  A5 20    LDA $20
30F9  A6 21    LDX $21
30FB  18       CLC
30FC  69 09    ADC #$09
30FE  90 01    BCC L3101
3100  E8       INX

L3101:
3101  A0 02    LDY #$02
3103  91 20    STA ($20),Y
3105  C8       INY
3106  8A       TXA
3107  91 20    STA ($20),Y
3109  A5 20    LDA $20
310B  A6 21    LDX $21
310D  18       CLC
310E  69 08    ADC #$08
3110  90 01    BCC L3113
3112  E8       INX

L3113:
3113  92 20    STA ($20)
3115  A0 01    LDY #$01
3117  8A       TXA
3118  91 20    STA ($20),Y
311A  A5 20    LDA $20
311C  A6 21    LDX $21
311E  18       CLC
311F  69 06    ADC #$06
3121  90 01    BCC L3124
3123  E8       INX

L3124:
3124  20 B7 2B JSR L2BB7
3127  C9 00    CMP #$00
3129  F0 0A    BEQ L3135
312B  A2 00    LDX #$00
312D  8A       TXA
312E  A0 12    LDY #$12
3130  A0 1A    LDY #$1A
3132  4C 2E 61 JMP addysp

L3135:
3135  A0 05    LDY #$05
3137  B1 20    LDA ($20),Y
3139  AA       TAX
313A  88       DEY
313B  B1 20    LDA ($20),Y
313D  A0 0C    LDY #$0C
313F  20 E6 63 JSR staxysp
3142  A0 07    LDY #$07
3144  B1 20    LDA ($20),Y
3146  AA       TAX
3147  88       DEY
3148  B1 20    LDA ($20),Y
314A  A0 0A    LDY #$0A
314C  20 E6 63 JSR staxysp
314F  20 03 62 JSR incsp8

L3152:
3152  20 6B 61 JSR decsp5
3155  A0 06    LDY #$06
3157  B1 20    LDA ($20),Y
3159  AA       TAX
315A  88       DEY
315B  B1 20    LDA ($20),Y
315D  A0 03    LDY #$03
315F  91 20    STA ($20),Y
3161  C8       INY
3162  8A       TXA
3163  91 20    STA ($20),Y
3165  A0 0D    LDY #$0D
3167  B1 20    LDA ($20),Y
3169  A0 02    LDY #$02
316B  91 20    STA ($20),Y
316D  A0 0A    LDY #$0A
316F  B1 20    LDA ($20),Y
3171  AA       TAX
3172  88       DEY
3173  B1 20    LDA ($20),Y
3175  92 20    STA ($20)
3177  A0 01    LDY #$01
3179  8A       TXA
317A  91 20    STA ($20),Y
317C  A0 08    LDY #$08
317E  B1 20    LDA ($20),Y
3180  AA       TAX
3181  88       DEY
3182  B1 20    LDA ($20),Y
3184  20 C9 2D JSR L2DC9
3187  C9 00    CMP #$00
3189  D0 08    BNE L3193
318B  AA       TAX
318C  A0 0A    LDY #$0A
318E  A0 12    LDY #$12
3190  4C 2E 61 JMP addysp

L3193:
3193  20 F9 61 JSR incsp6
3196  80 24    BRA L31BC

L3198:
3198  A5 20    LDA $20
319A  A6 21    LDX $21
319C  18       CLC
319D  69 04    ADC #$04
319F  90 01    BCC L31A2
31A1  E8       INX

L31A2:
31A2  20 9C 63 JSR pushax
31A5  A5 20    LDA $20
31A7  A6 21    LDX $21
31A9  18       CLC
31AA  69 0A    ADC #$0A
31AC  90 01    BCC L31AF
31AE  E8       INX

L31AF:
31AF  20 9F 2E JSR L2E9F
31B2  C9 00    CMP #$00
31B4  D0 06    BNE L31BC
31B6  AA       TAX
31B7  A0 0C    LDY #$0C
31B9  4C 2E 61 JMP addysp

L31BC:
31BC  20 EF 61 JSR incsp4

L31BF:
31BF  A5 20    LDA $20
31C1  A6 21    LDX $21
31C3  18       CLC
31C4  69 06    ADC #$06
31C6  90 01    BCC L31C9
31C8  E8       INX

L31C9:
31C9  20 9C 63 JSR pushax
31CC  A5 20    LDA $20
31CE  A6 21    LDX $21
31D0  18       CLC
31D1  69 02    ADC #$02
31D3  90 01    BCC L31D6
31D5  E8       INX

L31D6:
31D6  20 8E 2A JSR L2A8E
31D9  C9 00    CMP #$00
31DB  F0 03    BEQ L31E0
31DD  4C 10 30 JMP L3010

L31E0:
31E0  A0 04    LDY #$04
31E2  B1 20    LDA ($20),Y
31E4  C8       INY
31E5  11 20    ORA ($20),Y
31E7  D0 0B    BNE L31F4
31E9  AD 33 66 LDA $6633
31EC  F0 06    BEQ L31F4
31EE  A2 00    LDX #$00
31F0  8A       TXA
31F1  4C 03 62 JMP incsp8

L31F4:
31F4  B1 20    LDA ($20),Y
31F6  AA       TAX
31F7  88       DEY
31F8  B1 20    LDA ($20),Y
31FA  18       CLC
31FB  69 2E    ADC #$2E
31FD  85 28    STA $28
31FF  8A       TXA
3200  69 65    ADC #$65
3202  85 29    STA $29
3204  A9 00    LDA #$00
3206  92 28    STA ($28)
3208  20 44 61 JSR decsp2
320B  A9 00    LDA #$00
320D  92 20    STA ($20)
320F  A0 01    LDY #$01
3211  91 20    STA ($20),Y
3213  A0 01    LDY #$01
3215  B1 20    LDA ($20),Y
3217  AA       TAX
3218  B2 20    LDA ($20)
321A  38       SEC
321B  A0 06    LDY #$06
321D  F1 20    SBC ($20),Y
321F  85 30    STA $30
3221  8A       TXA
3222  C8       INY
3223  F1 20    SBC ($20),Y
3225  05 30    ORA $30
3227  F0 02    BEQ L322B
3229  B0 2F    BCS L325A

L322B:
322B  A0 01    LDY #$01
322D  B1 20    LDA ($20),Y
322F  AA       TAX
3230  B2 20    LDA ($20)
3232  18       CLC
3233  69 29    ADC #$29
3235  85 22    STA $22
3237  8A       TXA
3238  69 64    ADC #$64
323A  85 23    STA $23
323C  A0 01    LDY #$01
323E  B1 20    LDA ($20),Y
3240  AA       TAX
3241  B2 20    LDA ($20)
3243  85 28    STA $28
3245  8A       TXA
3246  18       CLC
3247  69 65    ADC #$65
3249  85 29    STA $29
324B  A0 2E    LDY #$2E
324D  B1 28    LDA ($28),Y
324F  92 22    STA ($22)
3251  A2 00    LDX #$00
3253  A9 01    LDA #$01
3255  20 1C 61 JSR addeq0sp
3258  80 B9    BRA L3213

L325A:
325A  20 DC 61 JSR incsp2
325D  A0 04    LDY #$04
325F  B1 20    LDA ($20),Y
3261  8D 69 64 STA _nbox_line_len
3264  A2 00    LDX #$00
3266  A9 01    LDA #$01
3268  4C 03 62 JMP incsp8
326B  AD 34 66 LDA $6634
326E  C9 FF    CMP #$FF
3270  F0 08    BEQ L327A
3272  20 42 50 JSR _neox_close
3275  A9 FF    LDA #$FF
3277  8D 34 66 STA $6634

L327A:
327A  AD 35 66 LDA $6635
327D  C9 FF    CMP #$FF
327F  F0 08    BEQ L3289
3281  20 42 50 JSR _neox_close
3284  A9 FF    LDA #$FF
3286  8D 35 66 STA $6635

L3289:
3289  AD 36 66 LDA $6636
328C  C9 FF    CMP #$FF
328E  F0 08    BEQ L3298
3290  20 42 50 JSR _neox_close
3293  A9 FF    LDA #$FF
3295  8D 36 66 STA $6636

L3298:
3298  60       RTS
3299  20 9C 63 JSR pushax
329C  20 51 61 JSR decsp3
329F  A0 04    LDY #$04
32A1  B1 20    LDA ($20),Y
32A3  85 29    STA $29
32A5  88       DEY
32A6  B1 20    LDA ($20),Y
32A8  85 28    STA $28
32AA  B2 28    LDA ($28)
32AC  C9 01    CMP #$01
32AE  D0 13    BNE L32C3
32B0  A0 05    LDY #$05
32B2  B1 20    LDA ($20),Y
32B4  F0 07    BEQ L32BD
32B6  A2 00    LDX #$00
32B8  A9 06    LDA #$06
32BA  4C F9 61 JMP incsp6

L32BD:
32BD  A0 02    LDY #$02
32BF  91 20    STA ($20),Y
32C1  80 5A    BRA L331D

L32C3:
32C3  C8       INY
32C4  B1 20    LDA ($20),Y
32C6  85 29    STA $29
32C8  88       DEY
32C9  B1 20    LDA ($20),Y
32CB  85 28    STA $28
32CD  B2 28    LDA ($28)
32CF  C9 02    CMP #$02
32D1  D0 1A    BNE L32ED
32D3  A0 05    LDY #$05
32D5  B1 20    LDA ($20),Y
32D7  C9 01    CMP #$01
32D9  F0 0C    BEQ L32E7
32DB  C9 02    CMP #$02
32DD  F0 07    BEQ L32E6
32DF  A2 00    LDX #$00
32E1  A9 06    LDA #$06
32E3  4C F9 61 JMP incsp6

L32E6:
32E6  3A       DEC

L32E7:
32E7  A0 02    LDY #$02
32E9  91 20    STA ($20),Y
32EB  80 30    BRA L331D

L32ED:
32ED  C8       INY
32EE  B1 20    LDA ($20),Y
32F0  85 29    STA $29
32F2  88       DEY
32F3  B1 20    LDA ($20),Y
32F5  85 28    STA $28
32F7  A2 00    LDX #$00
32F9  B2 28    LDA ($28)
32FB  C9 03    CMP #$03
32FD  D0 19    BNE L3318
32FF  A0 05    LDY #$05
3301  B1 20    LDA ($20),Y
3303  C9 01    CMP #$01
3305  F0 09    BEQ L3310
3307  C9 02    CMP #$02
3309  F0 05    BEQ L3310
330B  A9 06    LDA #$06
330D  4C F9 61 JMP incsp6

L3310:
3310  A9 04    LDA #$04
3312  A0 02    LDY #$02
3314  91 20    STA ($20),Y
3316  80 05    BRA L331D

L3318:
3318  A9 06    LDA #$06
331A  4C F9 61 JMP incsp6

L331D:
331D  A9 FF    LDA #$FF
331F  88       DEY
3320  91 20    STA ($20),Y
3322  20 51 61 JSR decsp3
3325  A0 07    LDY #$07
3327  B1 20    LDA ($20),Y
3329  AA       TAX
332A  88       DEY
332B  B1 20    LDA ($20),Y
332D  1A       INC
332E  D0 01    BNE L3331
3330  E8       INX

L3331:
3331  A0 01    LDY #$01
3333  91 20    STA ($20),Y
3335  C8       INY
3336  8A       TXA
3337  91 20    STA ($20),Y
3339  A0 05    LDY #$05
333B  B1 20    LDA ($20),Y
333D  92 20    STA ($20)
333F  A5 20    LDA $20
3341  A6 21    LDX $21
3343  18       CLC
3344  69 04    ADC #$04
3346  90 01    BCC L3349
3348  E8       INX

L3349:
3349  20 05 4F JSR _neox_open
334C  92 20    STA ($20)
334E  B2 20    LDA ($20)
3350  F0 07    BEQ L3359
3352  A2 00    LDX #$00
3354  B2 20    LDA ($20)

L3356:
3356  4C F9 61 JMP incsp6

L3359:
3359  A0 04    LDY #$04
335B  B1 20    LDA ($20),Y
335D  85 29    STA $29
335F  88       DEY
3360  B1 20    LDA ($20),Y
3362  85 28    STA $28
3364  B2 28    LDA ($28)
3366  C9 03    CMP #$03
3368  D0 38    BNE L33A2
336A  20 78 61 JSR decsp6
336D  A0 07    LDY #$07
336F  B1 20    LDA ($20),Y
3371  A0 05    LDY #$05
3373  91 20    STA ($20),Y
3375  A9 00    LDA #$00
3377  A0 01    LDY #$01
3379  91 20    STA ($20),Y
337B  C8       INY
337C  91 20    STA ($20),Y
337E  C8       INY
337F  91 20    STA ($20),Y
3381  C8       INY
3382  91 20    STA ($20),Y
3384  A9 02    LDA #$02
3386  92 20    STA ($20)
3388  A2 00    LDX #$00
338A  8A       TXA
338B  20 A4 52 JSR _neox_seek
338E  92 20    STA ($20)
3390  B2 20    LDA ($20)
3392  F0 0E    BEQ L33A2
3394  A0 01    LDY #$01
3396  B1 20    LDA ($20),Y
3398  20 42 50 JSR _neox_close
339B  A2 00    LDX #$00
339D  B2 20    LDA ($20)
339F  4C F9 61 JMP incsp6

L33A2:
33A2  A0 05    LDY #$05
33A4  B1 20    LDA ($20),Y
33A6  D0 0A    BNE L33B2
33A8  A0 01    LDY #$01
33AA  AA       TAX
33AB  B1 20    LDA ($20),Y
33AD  8D 34 66 STA $6634
33B0  80 19    BRA L33CB

L33B2:
33B2  B1 20    LDA ($20),Y
33B4  C9 01    CMP #$01
33B6  D0 0A    BNE L33C2
33B8  A8       TAY
33B9  A2 00    LDX #$00
33BB  B1 20    LDA ($20),Y
33BD  8D 35 66 STA $6635
33C0  80 09    BRA L33CB

L33C2:
33C2  A0 01    LDY #$01
33C4  B1 20    LDA ($20),Y
33C6  8D 36 66 STA $6636
33C9  A2 00    LDX #$00

L33CB:
33CB  8A       TXA
33CC  4C F9 61 JMP incsp6
33CF  20 3B 61 JSR decsp1
33D2  A2 00    LDX #$00
33D4  AD 70 65 LDA $6570
33D7  F0 13    BEQ L33EC
33D9  8A       TXA
33DA  20 86 63 JSR pusha
33DD  A9 70    LDA #$70
33DF  A2 65    LDX #$65
33E1  20 99 32 JSR L3299
33E4  92 20    STA ($20)
33E6  A2 00    LDX #$00
33E8  B2 20    LDA ($20)
33EA  D0 32    BNE L341E

L33EC:
33EC  AD B1 65 LDA $65B1
33EF  F0 14    BEQ L3405
33F1  A9 01    LDA #$01
33F3  20 86 63 JSR pusha
33F6  A9 B1    LDA #$B1
33F8  A2 65    LDX #$65
33FA  20 99 32 JSR L3299
33FD  92 20    STA ($20)
33FF  A2 00    LDX #$00
3401  B2 20    LDA ($20)
3403  D0 19    BNE L341E

L3405:
3405  AD F2 65 LDA $65F2
3408  F0 1B    BEQ L3425
340A  A9 02    LDA #$02
340C  20 86 63 JSR pusha
340F  A9 F2    LDA #$F2
3411  A2 65    LDX #$65
3413  20 99 32 JSR L3299
3416  92 20    STA ($20)
3418  A2 00    LDX #$00
341A  B2 20    LDA ($20)
341C  F0 07    BEQ L3425

L341E:
341E  20 6B 32 JSR L326B
3421  A2 00    LDX #$00
3423  B2 20    LDA ($20)

L3425:
3425  4C CD 61 JMP incsp1
3428  A0 12    LDY #$12
342A  20 19 64 JSR subysp
342D  A2 00    LDX #$00
342F  AD 6C 64 LDA _nbox_line_idx
3432  A0 05    LDY #$05
3434  20 E6 63 JSR staxysp
3437  80 09    BRA L3442
3439  A0 05    LDY #$05
343B  A2 00    LDX #$00
343D  A9 01    LDA #$01
343F  20 1E 61 JSR addeqysp

L3442:
3442  A0 06    LDY #$06
3444  B1 20    LDA ($20),Y
3446  AA       TAX
3447  88       DEY
3448  B1 20    LDA ($20),Y
344A  85 28    STA $28
344C  8A       TXA
344D  18       CLC
344E  69 64    ADC #$64
3450  85 29    STA $29
3452  A0 29    LDY #$29
3454  B1 28    LDA ($28),Y
3456  F0 1B    BEQ L3473
3458  A0 06    LDY #$06
345A  B1 20    LDA ($20),Y
345C  AA       TAX
345D  88       DEY
345E  B1 20    LDA ($20),Y
3460  85 28    STA $28
3462  8A       TXA
3463  18       CLC
3464  69 64    ADC #$64
3466  85 29    STA $29
3468  A0 29    LDY #$29
346A  B1 28    LDA ($28),Y
346C  20 3A 27 JSR L273A
346F  C9 00    CMP #$00
3471  D0 C6    BNE L3439

L3473:
3473  A0 06    LDY #$06
3475  B1 20    LDA ($20),Y
3477  AA       TAX
3478  88       DEY
3479  B1 20    LDA ($20),Y
347B  18       CLC
347C  69 29    ADC #$29
347E  A8       TAY
347F  8A       TXA
3480  69 64    ADC #$64
3482  AA       TAX
3483  98       TYA
3484  20 C2 56 JSR _neox_applet_string_length
3487  A0 03    LDY #$03
3489  20 E6 63 JSR staxysp
348C  A9 22    LDA #$22
348E  A2 1E    LDX #$1E
3490  A0 07    LDY #$07
3492  20 E6 63 JSR staxysp
3495  AD 6B 64 LDA _nbox_launch_id
3498  A0 09    LDY #$09
349A  91 20    STA ($20),Y
349C  A0 06    LDY #$06
349E  B1 20    LDA ($20),Y
34A0  AA       TAX
34A1  88       DEY
34A2  B1 20    LDA ($20),Y
34A4  18       CLC
34A5  69 29    ADC #$29
34A7  A8       TAY
34A8  8A       TXA
34A9  69 64    ADC #$64
34AB  AA       TAX
34AC  98       TYA
34AD  A0 0A    LDY #$0A
34AF  20 E6 63 JSR staxysp
34B2  A0 03    LDY #$03
34B4  B1 20    LDA ($20),Y
34B6  A0 0C    LDY #$0C
34B8  91 20    STA ($20),Y
34BA  AD 34 66 LDA $6634
34BD  C9 FF    CMP #$FF
34BF  D0 03    BNE L34C4
34C1  1A       INC
34C2  80 03    BRA L34C7

L34C4:
34C4  AD 34 66 LDA $6634

L34C7:
34C7  C8       INY
34C8  91 20    STA ($20),Y
34CA  AD 35 66 LDA $6635
34CD  C9 FF    CMP #$FF
34CF  D0 04    BNE L34D5
34D1  A9 01    LDA #$01
34D3  80 03    BRA L34D8

L34D5:
34D5  AD 35 66 LDA $6635

L34D8:
34D8  C8       INY
34D9  91 20    STA ($20),Y
34DB  AD 36 66 LDA $6636
34DE  C9 FF    CMP #$FF
34E0  D0 04    BNE L34E6
34E2  A9 02    LDA #$02
34E4  80 03    BRA L34E9

L34E6:
34E6  AD 36 66 LDA $6636

L34E9:
34E9  C8       INY
34EA  91 20    STA ($20),Y
34EC  A9 04    LDA #$04
34EE  C8       INY
34EF  91 20    STA ($20),Y
34F1  A9 FF    LDA #$FF
34F3  C8       INY
34F4  91 20    STA ($20),Y
34F6  A0 02    LDY #$02
34F8  91 20    STA ($20),Y
34FA  A5 20    LDA $20
34FC  A6 21    LDX $21
34FE  18       CLC
34FF  69 07    ADC #$07
3501  90 01    BCC L3504
3503  E8       INX

L3504:
3504  20 9C 63 JSR pushax
3507  A5 20    LDA $20
3509  A6 21    LDX $21
350B  18       CLC
350C  69 04    ADC #$04
350E  90 01    BCC L3511
3510  E8       INX

L3511:
3511  20 23 53 JSR _neox_spawn_resident
3514  92 20    STA ($20)
3516  B2 20    LDA ($20)
3518  D0 19    BNE L3533
351A  A0 01    LDY #$01
351C  91 20    STA ($20),Y
351E  C8       INY
351F  B1 20    LDA ($20),Y
3521  20 86 63 JSR pusha
3524  A5 20    LDA $20
3526  A6 21    LDX $21
3528  18       CLC
3529  69 02    ADC #$02
352B  90 01    BCC L352E
352D  E8       INX

L352E:
352E  20 68 53 JSR _neox_waitpid
3531  92 20    STA ($20)

L3533:
3533  20 6B 32 JSR L326B
3536  B2 20    LDA ($20)
3538  D0 13    BNE L354D
353A  A0 01    LDY #$01
353C  B1 20    LDA ($20),Y
353E  C9 FE    CMP #$FE
3540  D0 0B    BNE L354D
3542  98       TYA
3543  20 86 63 JSR pusha
3546  A9 B4    LDA #$B4
3548  A2 5A    LDX #$5A
354A  20 B2 57 JSR _neox_applet_write_string

L354D:
354D  A2 00    LDX #$00
354F  B2 20    LDA ($20)
3551  A0 12    LDY #$12
3553  4C 2E 61 JMP addysp
3556  20 44 61 JSR decsp2
3559  A2 00    LDX #$00
355B  AD 6C 64 LDA _nbox_line_idx
355E  20 E4 63 JSR stax0sp
3561  80 07    BRA L356A
3563  A2 00    LDX #$00
3565  A9 01    LDA #$01
3567  20 1C 61 JSR addeq0sp

L356A:
356A  A0 01    LDY #$01
356C  B1 20    LDA ($20),Y
356E  AA       TAX
356F  B2 20    LDA ($20)
3571  85 28    STA $28
3573  8A       TXA
3574  18       CLC
3575  69 64    ADC #$64
3577  85 29    STA $29
3579  A0 29    LDY #$29
357B  B1 28    LDA ($28),Y
357D  F0 1A    BEQ L3599
357F  A0 01    LDY #$01
3581  B1 20    LDA ($20),Y
3583  AA       TAX
3584  B2 20    LDA ($20)
3586  85 28    STA $28
3588  8A       TXA
3589  18       CLC
358A  69 64    ADC #$64
358C  85 29    STA $29
358E  A0 29    LDY #$29
3590  B1 28    LDA ($28),Y
3592  20 3A 27 JSR L273A
3595  C9 00    CMP #$00
3597  D0 CA    BNE L3563

L3599:
3599  A0 01    LDY #$01
359B  B1 20    LDA ($20),Y
359D  AA       TAX
359E  B2 20    LDA ($20)
35A0  85 28    STA $28
35A2  8A       TXA
35A3  18       CLC
35A4  69 64    ADC #$64
35A6  85 29    STA $29
35A8  A0 29    LDY #$29
35AA  B1 28    LDA ($28),Y
35AC  C9 2D    CMP #$2D
35AE  F0 06    BEQ L35B6
35B0  A2 00    LDX #$00
35B2  8A       TXA
35B3  4C DC 61 JMP incsp2

L35B6:
35B6  A2 00    LDX #$00
35B8  A9 01    LDA #$01
35BA  20 1C 61 JSR addeq0sp
35BD  A0 01    LDY #$01
35BF  B1 20    LDA ($20),Y
35C1  AA       TAX
35C2  B2 20    LDA ($20)
35C4  85 28    STA $28
35C6  8A       TXA
35C7  18       CLC
35C8  69 64    ADC #$64
35CA  85 29    STA $29
35CC  A0 29    LDY #$29
35CE  B1 28    LDA ($28),Y
35D0  F0 1A    BEQ L35EC
35D2  A0 01    LDY #$01
35D4  B1 20    LDA ($20),Y
35D6  AA       TAX
35D7  B2 20    LDA ($20)
35D9  85 28    STA $28
35DB  8A       TXA
35DC  18       CLC
35DD  69 64    ADC #$64
35DF  85 29    STA $29
35E1  A0 29    LDY #$29
35E3  B1 28    LDA ($28),Y
35E5  20 3A 27 JSR L273A
35E8  C9 00    CMP #$00
35EA  D0 CA    BNE L35B6

L35EC:
35EC  A0 01    LDY #$01
35EE  B1 20    LDA ($20),Y
35F0  AA       TAX
35F1  B2 20    LDA ($20)
35F3  85 28    STA $28
35F5  8A       TXA
35F6  18       CLC
35F7  69 64    ADC #$64
35F9  85 29    STA $29
35FB  A0 29    LDY #$29
35FD  B1 28    LDA ($28),Y
35FF  20 2D 63 JSR booleq
3602  4C DC 61 JMP incsp2
3605  20 9C 63 JSR pushax
3608  20 44 61 JSR decsp2
360B  A9 00    LDA #$00
360D  92 20    STA ($20)
360F  A0 01    LDY #$01
3611  91 20    STA ($20),Y
3613  80 2F    BRA L3644
3615  A0 04    LDY #$04
3617  B1 20    LDA ($20),Y
3619  18       CLC
361A  72 20    ADC ($20)
361C  85 22    STA $22
361E  C8       INY
361F  B1 20    LDA ($20),Y
3621  A0 01    LDY #$01
3623  71 20    ADC ($20),Y
3625  85 23    STA $23
3627  C8       INY
3628  B1 20    LDA ($20),Y
362A  18       CLC
362B  72 20    ADC ($20)
362D  85 28    STA $28
362F  C8       INY
3630  B1 20    LDA ($20),Y
3632  A0 01    LDY #$01
3634  71 20    ADC ($20),Y
3636  85 29    STA $29
3638  B2 28    LDA ($28)
363A  92 22    STA ($22)
363C  A2 00    LDX #$00
363E  98       TYA
363F  20 1C 61 JSR addeq0sp
3642  A0 01    LDY #$01

L3644:
3644  B1 20    LDA ($20),Y
3646  C9 00    CMP #$00
3648  D0 04    BNE L364E
364A  B2 20    LDA ($20)
364C  C9 3F    CMP #$3F

L364E:
364E  B0 15    BCS L3665
3650  C8       INY
3651  B1 20    LDA ($20),Y
3653  18       CLC
3654  72 20    ADC ($20)
3656  85 28    STA $28
3658  C8       INY
3659  B1 20    LDA ($20),Y
365B  A0 01    LDY #$01
365D  71 20    ADC ($20),Y
365F  85 29    STA $29
3661  B2 28    LDA ($28)
3663  D0 B0    BNE L3615

L3665:
3665  A0 04    LDY #$04
3667  B1 20    LDA ($20),Y
3669  18       CLC
366A  72 20    ADC ($20)
366C  85 28    STA $28
366E  C8       INY
366F  B1 20    LDA ($20),Y
3671  A0 01    LDY #$01
3673  71 20    ADC ($20),Y
3675  85 29    STA $29
3677  A9 00    LDA #$00
3679  92 28    STA ($28)
367B  4C F9 61 JMP incsp6
367E  A0 43    LDY #$43
3680  20 19 64 JSR subysp
3683  AD 77 66 LDA $6677
3686  D0 0E    BNE L3696
3688  A9 75    LDA #$75
368A  A2 5A    LDX #$5A
368C  20 E0 57 JSR _neox_applet_report
368F  A2 00    LDX #$00
3691  A9 06    LDA #$06
3693  4C 9D 37 JMP L379D

L3696:
3696  A0 01    LDY #$01
3698  A9 00    LDA #$00
369A  91 20    STA ($20),Y
369C  C8       INY
369D  91 20    STA ($20),Y
369F  20 5E 61 JSR decsp4
36A2  A5 20    LDA $20
36A4  A6 21    LDX $21
36A6  18       CLC
36A7  69 07    ADC #$07
36A9  90 01    BCC L36AC
36AB  E8       INX

L36AC:
36AC  91 20    STA ($20),Y
36AE  C8       INY
36AF  8A       TXA
36B0  91 20    STA ($20),Y
36B2  A9 40    LDA #$40
36B4  92 20    STA ($20)
36B6  A0 01    LDY #$01
36B8  A9 00    LDA #$00
36BA  91 20    STA ($20),Y
36BC  A5 20    LDA $20
36BE  A6 21    LDX $21
36C0  18       CLC
36C1  69 05    ADC #$05
36C3  90 01    BCC L36C6
36C5  E8       INX

L36C6:
36C6  20 22 51 JSR _neox_getcwd
36C9  92 20    STA ($20)
36CB  B2 20    LDA ($20)
36CD  F0 0E    BEQ L36DD
36CF  A9 95    LDA #$95
36D1  A2 5A    LDX #$5A
36D3  20 E0 57 JSR _neox_applet_report
36D6  A2 00    LDX #$00
36D8  B2 20    LDA ($20)
36DA  4C 9D 37 JMP L379D

L36DD:
36DD  A9 37    LDA #$37
36DF  A2 66    LDX #$66
36E1  20 FC 50 JSR _neox_chdir
36E4  92 20    STA ($20)
36E6  B2 20    LDA ($20)
36E8  F0 0E    BEQ L36F8
36EA  A9 95    LDA #$95
36EC  A2 5A    LDX #$5A
36EE  20 E0 57 JSR _neox_applet_report
36F1  A2 00    LDX #$00
36F3  B2 20    LDA ($20)
36F5  4C 9D 37 JMP L379D

L36F8:
36F8  A9 37    LDA #$37
36FA  A2 66    LDX #$66
36FC  20 9C 63 JSR pushax
36FF  A5 20    LDA $20
3701  A6 21    LDX $21
3703  18       CLC
3704  69 05    ADC #$05
3706  90 01    BCC L3709
3708  E8       INX

L3709:
3709  20 05 36 JSR L3605
370C  A9 01    LDA #$01
370E  8D 77 66 STA $6677
3711  A8       TAY
3712  3A       DEC
3713  91 20    STA ($20),Y
3715  C8       INY
3716  91 20    STA ($20),Y
3718  20 5E 61 JSR decsp4
371B  A5 20    LDA $20
371D  A6 21    LDX $21
371F  18       CLC
3720  69 07    ADC #$07
3722  90 01    BCC L3725
3724  E8       INX

L3725:
3725  91 20    STA ($20),Y
3727  C8       INY
3728  8A       TXA
3729  91 20    STA ($20),Y
372B  A9 40    LDA #$40
372D  92 20    STA ($20)
372F  A0 01    LDY #$01
3731  A9 00    LDA #$00
3733  91 20    STA ($20),Y
3735  A5 20    LDA $20
3737  A6 21    LDX $21
3739  18       CLC
373A  69 05    ADC #$05
373C  90 01    BCC L373F
373E  E8       INX

L373F:
373F  20 22 51 JSR _neox_getcwd
3742  92 20    STA ($20)
3744  B2 20    LDA ($20)
3746  F0 0D    BEQ L3755
3748  A9 95    LDA #$95
374A  A2 5A    LDX #$5A
374C  20 E0 57 JSR _neox_applet_report
374F  A2 00    LDX #$00
3751  B2 20    LDA ($20)
3753  80 48    BRA L379D

L3755:
3755  20 51 61 JSR decsp3
3758  A9 01    LDA #$01
375A  A0 02    LDY #$02
375C  91 20    STA ($20),Y
375E  A5 20    LDA $20
3760  A6 21    LDX $21
3762  18       CLC
3763  69 06    ADC #$06
3765  90 01    BCC L3768
3767  E8       INX

L3768:
3768  92 20    STA ($20)
376A  88       DEY
376B  8A       TXA
376C  91 20    STA ($20),Y
376E  A0 05    LDY #$05
3770  B1 20    LDA ($20),Y
3772  AA       TAX
3773  88       DEY
3774  B1 20    LDA ($20),Y
3776  20 F9 56 JSR _neox_applet_write_all
3779  92 20    STA ($20)
377B  B2 20    LDA ($20)
377D  F0 06    BEQ L3785
377F  A2 00    LDX #$00
3781  B2 20    LDA ($20)
3783  80 18    BRA L379D

L3785:
3785  20 51 61 JSR decsp3
3788  A9 01    LDA #$01
378A  A0 02    LDY #$02
378C  91 20    STA ($20),Y
378E  A9 B2    LDA #$B2
3790  92 20    STA ($20)
3792  88       DEY
3793  A9 5A    LDA #$5A
3795  91 20    STA ($20),Y
3797  A2 00    LDX #$00
3799  98       TYA
379A  20 F9 56 JSR _neox_applet_write_all

L379D:
379D  A0 43    LDY #$43
379F  4C 2E 61 JMP addysp
37A2  A0 43    LDY #$43
37A4  20 19 64 JSR subysp
37A7  A0 01    LDY #$01
37A9  A9 00    LDA #$00
37AB  91 20    STA ($20),Y
37AD  C8       INY
37AE  91 20    STA ($20),Y
37B0  20 5E 61 JSR decsp4
37B3  A5 20    LDA $20
37B5  A6 21    LDX $21
37B7  18       CLC
37B8  69 07    ADC #$07
37BA  90 01    BCC L37BD
37BC  E8       INX

L37BD:
37BD  91 20    STA ($20),Y
37BF  C8       INY
37C0  8A       TXA
37C1  91 20    STA ($20),Y
37C3  A9 40    LDA #$40
37C5  92 20    STA ($20)
37C7  A0 01    LDY #$01
37C9  A9 00    LDA #$00
37CB  91 20    STA ($20),Y
37CD  A5 20    LDA $20
37CF  A6 21    LDX $21
37D1  18       CLC
37D2  69 05    ADC #$05
37D4  90 01    BCC L37D7
37D6  E8       INX

L37D7:
37D7  20 22 51 JSR _neox_getcwd
37DA  92 20    STA ($20)
37DC  B2 20    LDA ($20)
37DE  D0 24    BNE L3804
37E0  20 D1 24 JSR _neosh_nbox_dispatch
37E3  92 20    STA ($20)
37E5  A2 00    LDX #$00
37E7  B2 20    LDA ($20)
37E9  D0 1B    BNE L3806
37EB  A9 37    LDA #$37
37ED  A2 66    LDX #$66
37EF  20 9C 63 JSR pushax
37F2  A5 20    LDA $20
37F4  A6 21    LDX $21
37F6  18       CLC
37F7  69 05    ADC #$05
37F9  90 01    BCC L37FC
37FB  E8       INX

L37FC:
37FC  20 05 36 JSR L3605
37FF  A9 01    LDA #$01
3801  8D 77 66 STA $6677

L3804:
3804  A2 00    LDX #$00

L3806:
3806  B2 20    LDA ($20)
3808  A0 43    LDY #$43
380A  4C 2E 61 JMP addysp
380D  20 3B 61 JSR decsp1
3810  20 21 23 JSR _neosh_nbox_resolve
3813  C9 00    CMP #$00
3815  F0 03    BEQ L381A
3817  4C 9B 38 JMP L389B

L381A:
381A  AD 6A 64 LDA _nbox_exec_mode
381D  C9 FE    CMP #$FE
381F  F0 7D    BEQ L389E
3821  AD 6A 64 LDA _nbox_exec_mode
3824  D0 34    BNE L385A
3826  AD 33 66 LDA $6633
3829  F0 0F    BEQ L383A
382B  A9 01    LDA #$01
382D  20 86 63 JSR pusha
3830  A9 6D    LDA #$6D
3832  A2 5A    LDX #$5A
3834  20 B2 57 JSR _neox_applet_write_string
3837  4C CD 61 JMP incsp1

L383A:
383A  AD 6B 64 LDA _nbox_launch_id
383D  C9 02    CMP #$02
383F  D0 13    BNE L3854
3841  20 56 35 JSR L3556
3844  C9 00    CMP #$00
3846  F0 06    BEQ L384E
3848  20 7E 36 JSR L367E
384B  4C CD 61 JMP incsp1

L384E:
384E  20 A2 37 JSR L37A2
3851  4C CD 61 JMP incsp1

L3854:
3854  20 D1 24 JSR _neosh_nbox_dispatch
3857  4C CD 61 JMP incsp1

L385A:
385A  AD 6A 64 LDA _nbox_exec_mode
385D  C9 01    CMP #$01
385F  D0 3A    BNE L389B
3861  AD 33 66 LDA $6633
3864  F0 18    BEQ L387E
3866  20 CF 33 JSR L33CF
3869  92 20    STA ($20)
386B  B2 20    LDA ($20)
386D  F0 0F    BEQ L387E
386F  A9 01    LDA #$01
3871  20 86 63 JSR pusha
3874  A9 6D    LDA #$6D
3876  A2 5A    LDX #$5A
3878  20 B2 57 JSR _neox_applet_write_string
387B  4C CD 61 JMP incsp1

L387E:
387E  20 28 34 JSR L3428
3881  92 20    STA ($20)
3883  B2 20    LDA ($20)
3885  F0 17    BEQ L389E
3887  AD 33 66 LDA $6633
388A  F0 0F    BEQ L389B
388C  A9 01    LDA #$01
388E  20 86 63 JSR pusha
3891  A9 6D    LDA #$6D
3893  A2 5A    LDX #$5A
3895  20 B2 57 JSR _neox_applet_write_string
3898  4C CD 61 JMP incsp1

L389B:
389B  20 24 25 JSR _neosh_nbox_print_unknown

L389E:
389E  4C CD 61 JMP incsp1

_neosh_main:
38A1  20 44 61 JSR decsp2
38A4  20 54 27 JSR L2754
38A7  20 3B 61 JSR decsp1
38AA  A5 20    LDA $20
38AC  A6 21    LDX $21
38AE  18       CLC
38AF  69 01    ADC #$01
38B1  90 01    BCC L38B4
38B3  E8       INX

L38B4:
38B4  20 56 28 JSR L2856
38B7  92 20    STA ($20)
38B9  B2 20    LDA ($20)
38BB  D0 05    BNE L38C2
38BD  20 CD 61 JSR incsp1
38C0  80 2E    BRA L38F0

L38C2:
38C2  B2 20    LDA ($20)
38C4  C9 04    CMP #$04
38C6  D0 23    BNE L38EB
38C8  9C 6E 64 STZ $646E
38CB  9C 29 64 STZ __C_BSS_LOAD__
38CE  9C 69 64 STZ _nbox_line_len
38D1  A9 01    LDA #$01
38D3  20 86 63 JSR pusha
38D6  A9 B4    LDA #$B4
38D8  A2 5A    LDX #$5A
38DA  20 B2 57 JSR _neox_applet_write_string
38DD  A0 01    LDY #$01
38DF  A9 00    LDA #$00
38E1  91 20    STA ($20),Y
38E3  C8       INY
38E4  91 20    STA ($20),Y
38E6  20 CD 61 JSR incsp1
38E9  80 05    BRA L38F0

L38EB:
38EB  20 CD 61 JSR incsp1
38EE  80 B7    BRA L38A7

L38F0:
38F0  B2 20    LDA ($20)
38F2  A0 01    LDY #$01
38F4  11 20    ORA ($20),Y
38F6  D0 05    BNE L38FD
38F8  20 DC 61 JSR incsp2
38FB  80 A4    BRA _neosh_main

L38FD:
38FD  B1 20    LDA ($20),Y
38FF  AA       TAX
3900  B2 20    LDA ($20)
3902  20 6F 29 JSR L296F
3905  20 F7 2F JSR L2FF7
3908  C9 00    CMP #$00
390A  D0 10    BNE L391C
390C  1A       INC
390D  20 86 63 JSR pusha
3910  A9 6D    LDA #$6D
3912  A2 5A    LDX #$5A
3914  20 B2 57 JSR _neox_applet_write_string
3917  20 DC 61 JSR incsp2
391A  80 85    BRA _neosh_main

L391C:
391C  20 0D 38 JSR L380D
391F  20 DC 61 JSR incsp2
3922  4C A1 38 JMP _neosh_main

_neox_applet_echo:
3925  20 9C 63 JSR pushax
3928  A0 0C    LDY #$0C
392A  20 19 64 JSR subysp
392D  A5 20    LDA $20
392F  A6 21    LDX $21
3931  18       CLC
3932  69 06    ADC #$06
3934  90 01    BCC L3937
3936  E8       INX

L3937:
3937  20 9C 63 JSR pushax
393A  A0 0F    LDY #$0F
393C  B1 20    LDA ($20),Y
393E  AA       TAX
393F  88       DEY
3940  B1 20    LDA ($20),Y
3942  20 54 54 JSR _neox_arg_cursor_init
3945  A9 00    LDA #$00
3947  80 5C    BRA L39A5
3949  B2 20    LDA ($20)
394B  F0 26    BEQ L3973
394D  20 51 61 JSR decsp3
3950  A9 01    LDA #$01
3952  A0 02    LDY #$02
3954  91 20    STA ($20),Y
3956  A9 B8    LDA #$B8
3958  92 20    STA ($20)
395A  88       DEY
395B  A9 5A    LDA #$5A
395D  91 20    STA ($20),Y
395F  A2 00    LDX #$00
3961  98       TYA
3962  20 F9 56 JSR _neox_applet_write_all
3965  A0 01    LDY #$01
3967  91 20    STA ($20),Y
3969  B1 20    LDA ($20),Y
396B  F0 06    BEQ L3973
396D  A2 00    LDX #$00
396F  B1 20    LDA ($20),Y
3971  80 6A    BRA L39DD

L3973:
3973  20 51 61 JSR decsp3
3976  A9 01    LDA #$01
3978  A0 02    LDY #$02
397A  91 20    STA ($20),Y
397C  A0 06    LDY #$06
397E  B1 20    LDA ($20),Y
3980  AA       TAX
3981  88       DEY
3982  B1 20    LDA ($20),Y
3984  92 20    STA ($20)
3986  A0 01    LDY #$01
3988  8A       TXA
3989  91 20    STA ($20),Y
398B  A0 08    LDY #$08
398D  B1 20    LDA ($20),Y
398F  AA       TAX
3990  88       DEY
3991  B1 20    LDA ($20),Y
3993  20 F9 56 JSR _neox_applet_write_all
3996  A0 01    LDY #$01
3998  91 20    STA ($20),Y
399A  B1 20    LDA ($20),Y
399C  F0 06    BEQ L39A4
399E  A2 00    LDX #$00
39A0  B1 20    LDA ($20),Y
39A2  80 39    BRA L39DD

L39A4:
39A4  98       TYA

L39A5:
39A5  92 20    STA ($20)
39A7  A5 20    LDA $20
39A9  A6 21    LDX $21
39AB  18       CLC
39AC  69 06    ADC #$06
39AE  90 01    BCC L39B1
39B0  E8       INX

L39B1:
39B1  20 9C 63 JSR pushax
39B4  A5 20    LDA $20
39B6  A6 21    LDX $21
39B8  18       CLC
39B9  69 04    ADC #$04
39BB  90 01    BCC L39BE
39BD  E8       INX

L39BE:
39BE  20 B0 54 JSR _neox_arg_next
39C1  C9 00    CMP #$00
39C3  D0 84    BNE L3949
39C5  20 51 61 JSR decsp3
39C8  A9 01    LDA #$01
39CA  A0 02    LDY #$02
39CC  91 20    STA ($20),Y
39CE  A9 BA    LDA #$BA
39D0  92 20    STA ($20)
39D2  88       DEY
39D3  A9 5A    LDA #$5A
39D5  91 20    STA ($20),Y
39D7  A2 00    LDX #$00
39D9  98       TYA
39DA  20 F9 56 JSR _neox_applet_write_all

L39DD:
39DD  A0 0E    LDY #$0E
39DF  4C 2E 61 JMP addysp
39E2  20 86 63 JSR pusha
39E5  20 51 61 JSR decsp3
39E8  A0 01    LDY #$01
39EA  A9 00    LDA #$00
39EC  91 20    STA ($20),Y
39EE  C8       INY
39EF  91 20    STA ($20),Y
39F1  20 6B 61 JSR decsp5
39F4  A0 08    LDY #$08
39F6  B1 20    LDA ($20),Y
39F8  A0 04    LDY #$04
39FA  91 20    STA ($20),Y
39FC  A9 B8    LDA #$B8
39FE  A0 02    LDY #$02
3A00  91 20    STA ($20),Y
3A02  C8       INY
3A03  A9 66    LDA #$66
3A05  91 20    STA ($20),Y
3A07  A9 40    LDA #$40
3A09  92 20    STA ($20)
3A0B  A0 01    LDY #$01
3A0D  A9 00    LDA #$00
3A0F  91 20    STA ($20),Y
3A11  A5 20    LDA $20
3A13  A6 21    LDX $21
3A15  18       CLC
3A16  69 06    ADC #$06
3A18  90 01    BCC L3A1B
3A1A  E8       INX

L3A1B:
3A1B  20 64 4F JSR _neox_read
3A1E  92 20    STA ($20)
3A20  B2 20    LDA ($20)
3A22  F0 0E    BEQ L3A32
3A24  A9 04    LDA #$04
3A26  A2 5B    LDX #$5B
3A28  20 E0 57 JSR _neox_applet_report
3A2B  A2 00    LDX #$00
3A2D  B2 20    LDA ($20)
3A2F  4C EF 61 JMP incsp4

L3A32:
3A32  A0 01    LDY #$01
3A34  B1 20    LDA ($20),Y
3A36  C8       INY
3A37  11 20    ORA ($20),Y
3A39  D0 04    BNE L3A3F
3A3B  AA       TAX
3A3C  4C EF 61 JMP incsp4

L3A3F:
3A3F  20 51 61 JSR decsp3
3A42  A9 01    LDA #$01
3A44  91 20    STA ($20),Y
3A46  A9 B8    LDA #$B8
3A48  92 20    STA ($20)
3A4A  88       DEY
3A4B  A9 66    LDA #$66
3A4D  91 20    STA ($20),Y
3A4F  A0 05    LDY #$05
3A51  B1 20    LDA ($20),Y
3A53  AA       TAX
3A54  88       DEY
3A55  B1 20    LDA ($20),Y
3A57  20 F9 56 JSR _neox_applet_write_all
3A5A  92 20    STA ($20)
3A5C  B2 20    LDA ($20)
3A5E  F0 0E    BEQ L3A6E
3A60  A9 15    LDA #$15
3A62  A2 5B    LDX #$5B
3A64  20 E0 57 JSR _neox_applet_report
3A67  A2 00    LDX #$00
3A69  B2 20    LDA ($20)
3A6B  4C EF 61 JMP incsp4

L3A6E:
3A6E  20 EA 61 JSR incsp3
3A71  4C E5 39 JMP L39E5

_neox_applet_cat:
3A74  20 9C 63 JSR pushax
3A77  A0 11    LDY #$11
3A79  20 19 64 JSR subysp
3A7C  A5 20    LDA $20
3A7E  A6 21    LDX $21
3A80  18       CLC
3A81  69 0B    ADC #$0B
3A83  90 01    BCC L3A86
3A85  E8       INX

L3A86:
3A86  20 9C 63 JSR pushax
3A89  A0 14    LDY #$14
3A8B  B1 20    LDA ($20),Y
3A8D  AA       TAX
3A8E  88       DEY
3A8F  B1 20    LDA ($20),Y
3A91  20 54 54 JSR _neox_arg_cursor_init
3A94  A5 20    LDA $20
3A96  A6 21    LDX $21
3A98  18       CLC
3A99  69 0B    ADC #$0B
3A9B  90 01    BCC L3A9E
3A9D  E8       INX

L3A9E:
3A9E  20 9C 63 JSR pushax
3AA1  A5 20    LDA $20
3AA3  A6 21    LDX $21
3AA5  18       CLC
3AA6  69 09    ADC #$09
3AA8  90 01    BCC L3AAB
3AAA  E8       INX

L3AAB:
3AAB  20 B0 54 JSR _neox_arg_next
3AAE  C9 00    CMP #$00
3AB0  D0 07    BNE L3AB9
3AB2  A0 02    LDY #$02
3AB4  91 20    STA ($20),Y
3AB6  4C 4B 3B JMP L3B4B

L3AB9:
3AB9  A5 20    LDA $20
3ABB  A6 21    LDX $21
3ABD  18       CLC
3ABE  69 0B    ADC #$0B
3AC0  90 01    BCC L3AC3
3AC2  E8       INX

L3AC3:
3AC3  20 9C 63 JSR pushax
3AC6  A5 20    LDA $20
3AC8  A6 21    LDX $21
3ACA  18       CLC
3ACB  69 05    ADC #$05
3ACD  90 01    BCC L3AD0
3ACF  E8       INX

L3AD0:
3AD0  20 B0 54 JSR _neox_arg_next
3AD3  C9 00    CMP #$00
3AD5  F0 0E    BEQ L3AE5
3AD7  A9 BC    LDA #$BC
3AD9  A2 5A    LDX #$5A
3ADB  20 E0 57 JSR _neox_applet_report
3ADE  A2 00    LDX #$00
3AE0  A9 06    LDA #$06
3AE2  4C 88 3B JMP L3B88

L3AE5:
3AE5  20 5E 61 JSR decsp4
3AE8  A5 20    LDA $20
3AEA  A6 21    LDX $21
3AEC  18       CLC
3AED  69 0B    ADC #$0B
3AEF  90 01    BCC L3AF2
3AF1  E8       INX

L3AF2:
3AF2  A0 02    LDY #$02
3AF4  91 20    STA ($20),Y
3AF6  C8       INY
3AF7  8A       TXA
3AF8  91 20    STA ($20),Y
3AFA  A9 78    LDA #$78
3AFC  92 20    STA ($20)
3AFE  A0 01    LDY #$01
3B00  A9 66    LDA #$66
3B02  91 20    STA ($20),Y
3B04  A2 00    LDX #$00
3B06  A9 40    LDA #$40
3B08  20 F5 57 JSR _neox_applet_copy_argument
3B0B  A0 01    LDY #$01
3B0D  91 20    STA ($20),Y
3B0F  B1 20    LDA ($20),Y
3B11  F0 09    BEQ L3B1C
3B13  A9 D5    LDA #$D5
3B15  A2 5A    LDX #$5A
3B17  20 E0 57 JSR _neox_applet_report
3B1A  80 66    BRA L3B82

L3B1C:
3B1C  20 51 61 JSR decsp3
3B1F  A9 78    LDA #$78
3B21  91 20    STA ($20),Y
3B23  C8       INY
3B24  A9 66    LDA #$66
3B26  91 20    STA ($20),Y
3B28  A9 00    LDA #$00
3B2A  92 20    STA ($20)
3B2C  A5 20    LDA $20
3B2E  A6 21    LDX $21
3B30  18       CLC
3B31  69 05    ADC #$05
3B33  90 01    BCC L3B36
3B35  E8       INX

L3B36:
3B36  20 05 4F JSR _neox_open
3B39  A0 01    LDY #$01
3B3B  91 20    STA ($20),Y
3B3D  B1 20    LDA ($20),Y
3B3F  F0 09    BEQ L3B4A
3B41  A9 ED    LDA #$ED
3B43  A2 5A    LDX #$5A
3B45  20 E0 57 JSR _neox_applet_report
3B48  80 38    BRA L3B82

L3B4A:
3B4A  98       TYA

L3B4B:
3B4B  92 20    STA ($20)
3B4D  A0 02    LDY #$02
3B4F  B1 20    LDA ($20),Y
3B51  20 E2 39 JSR L39E2
3B54  A0 01    LDY #$01
3B56  91 20    STA ($20),Y
3B58  B2 20    LDA ($20)
3B5A  F0 26    BEQ L3B82
3B5C  20 3B 61 JSR decsp1
3B5F  A0 03    LDY #$03
3B61  B1 20    LDA ($20),Y
3B63  20 42 50 JSR _neox_close
3B66  92 20    STA ($20)
3B68  A0 02    LDY #$02
3B6A  B1 20    LDA ($20),Y
3B6C  D0 11    BNE L3B7F
3B6E  B2 20    LDA ($20)
3B70  F0 0D    BEQ L3B7F
3B72  A9 27    LDA #$27
3B74  A2 5B    LDX #$5B
3B76  20 E0 57 JSR _neox_applet_report
3B79  B2 20    LDA ($20)
3B7B  A0 02    LDY #$02
3B7D  91 20    STA ($20),Y

L3B7F:
3B7F  20 CD 61 JSR incsp1

L3B82:
3B82  A0 01    LDY #$01
3B84  A2 00    LDX #$00
3B86  B1 20    LDA ($20),Y

L3B88:
3B88  A0 13    LDY #$13
3B8A  4C 2E 61 JMP addysp

_neox_applet_run_one_path:
3B8D  20 9C 63 JSR pushax
3B90  A0 0F    LDY #$0F
3B92  20 19 64 JSR subysp
3B95  A5 20    LDA $20
3B97  A6 21    LDX $21
3B99  18       CLC
3B9A  69 09    ADC #$09
3B9C  90 01    BCC L3B9F
3B9E  E8       INX

L3B9F:
3B9F  20 9C 63 JSR pushax
3BA2  A0 1E    LDY #$1E
3BA4  B1 20    LDA ($20),Y
3BA6  AA       TAX
3BA7  88       DEY
3BA8  B1 20    LDA ($20),Y
3BAA  20 54 54 JSR _neox_arg_cursor_init
3BAD  A5 20    LDA $20
3BAF  A6 21    LDX $21
3BB1  18       CLC
3BB2  69 09    ADC #$09
3BB4  90 01    BCC L3BB7
3BB6  E8       INX

L3BB7:
3BB7  20 9C 63 JSR pushax
3BBA  A5 20    LDA $20
3BBC  A6 21    LDX $21
3BBE  18       CLC
3BBF  69 07    ADC #$07
3BC1  90 01    BCC L3BC4
3BC3  E8       INX

L3BC4:
3BC4  20 B0 54 JSR _neox_arg_next
3BC7  C9 00    CMP #$00
3BC9  D0 12    BNE L3BDD
3BCB  A0 1A    LDY #$1A
3BCD  B1 20    LDA ($20),Y
3BCF  AA       TAX
3BD0  88       DEY
3BD1  B1 20    LDA ($20),Y
3BD3  20 E0 57 JSR _neox_applet_report
3BD6  A2 00    LDX #$00
3BD8  A9 06    LDA #$06
3BDA  4C B1 3C JMP L3CB1

L3BDD:
3BDD  A5 20    LDA $20
3BDF  A6 21    LDX $21
3BE1  18       CLC
3BE2  69 09    ADC #$09
3BE4  90 01    BCC L3BE7
3BE6  E8       INX

L3BE7:
3BE7  20 9C 63 JSR pushax
3BEA  A5 20    LDA $20
3BEC  A6 21    LDX $21
3BEE  18       CLC
3BEF  69 03    ADC #$03
3BF1  90 01    BCC L3BF4
3BF3  E8       INX

L3BF4:
3BF4  20 B0 54 JSR _neox_arg_next
3BF7  C9 00    CMP #$00
3BF9  F0 12    BEQ L3C0D
3BFB  A0 18    LDY #$18
3BFD  B1 20    LDA ($20),Y
3BFF  AA       TAX
3C00  88       DEY
3C01  B1 20    LDA ($20),Y
3C03  20 E0 57 JSR _neox_applet_report
3C06  A2 00    LDX #$00
3C08  A9 06    LDA #$06
3C0A  4C B1 3C JMP L3CB1

L3C0D:
3C0D  20 5E 61 JSR decsp4
3C10  A5 20    LDA $20
3C12  A6 21    LDX $21
3C14  18       CLC
3C15  69 09    ADC #$09
3C17  90 01    BCC L3C1A
3C19  E8       INX

L3C1A:
3C1A  A0 02    LDY #$02
3C1C  91 20    STA ($20),Y
3C1E  C8       INY
3C1F  8A       TXA
3C20  91 20    STA ($20),Y
3C22  A9 F8    LDA #$F8
3C24  92 20    STA ($20)
3C26  A0 01    LDY #$01
3C28  A9 66    LDA #$66
3C2A  91 20    STA ($20),Y
3C2C  A2 00    LDX #$00
3C2E  A9 40    LDA #$40
3C30  20 F5 57 JSR _neox_applet_copy_argument
3C33  92 20    STA ($20)
3C35  B2 20    LDA ($20)
3C37  F0 09    BEQ L3C42
3C39  A9 39    LDA #$39
3C3B  A2 5B    LDX #$5B
3C3D  20 E0 57 JSR _neox_applet_report
3C40  80 6B    BRA L3CAD

L3C42:
3C42  A0 12    LDY #$12
3C44  20 B4 63 JSR pushwysp
3C47  A9 F8    LDA #$F8
3C49  A2 66    LDX #$66
3C4B  48       PHA
3C4C  B2 20    LDA ($20)
3C4E  8D 27 64 STA $6427
3C51  A0 01    LDY #$01
3C53  B1 20    LDA ($20),Y
3C55  8D 28 64 STA $6428
3C58  68       PLA
3C59  20 26 64 JSR jmpvec
3C5C  20 DC 61 JSR incsp2
3C5F  92 20    STA ($20)
3C61  A2 00    LDX #$00
3C63  B2 20    LDA ($20)
3C65  F0 48    BEQ L3CAF
3C67  20 44 61 JSR decsp2
3C6A  A0 14    LDY #$14
3C6C  B1 20    LDA ($20),Y
3C6E  AA       TAX
3C6F  88       DEY
3C70  B1 20    LDA ($20),Y
3C72  20 E4 63 JSR stax0sp
3C75  A0 02    LDY #$02
3C77  B1 20    LDA ($20),Y
3C79  C9 02    CMP #$02
3C7B  D0 0B    BNE L3C88
3C7D  A0 17    LDY #$17
3C7F  B1 20    LDA ($20),Y
3C81  C8       INY
3C82  11 20    ORA ($20),Y
3C84  D0 11    BNE L3C97
3C86  A0 02    LDY #$02

L3C88:
3C88  B1 20    LDA ($20),Y
3C8A  C9 06    CMP #$06
3C8C  D0 12    BNE L3CA0
3C8E  A0 15    LDY #$15
3C90  B1 20    LDA ($20),Y
3C92  C8       INY
3C93  11 20    ORA ($20),Y
3C95  F0 09    BEQ L3CA0

L3C97:
3C97  B1 20    LDA ($20),Y
3C99  AA       TAX
3C9A  88       DEY
3C9B  B1 20    LDA ($20),Y
3C9D  20 E4 63 JSR stax0sp

L3CA0:
3CA0  A0 01    LDY #$01
3CA2  B1 20    LDA ($20),Y
3CA4  AA       TAX
3CA5  B2 20    LDA ($20)
3CA7  20 E0 57 JSR _neox_applet_report
3CAA  20 DC 61 JSR incsp2

L3CAD:
3CAD  A2 00    LDX #$00

L3CAF:
3CAF  B2 20    LDA ($20)

L3CB1:
3CB1  A0 1D    LDY #$1D
3CB3  4C 2E 61 JMP addysp

_neox_applet_run_two_paths:
3CB6  20 9C 63 JSR pushax
3CB9  A0 13    LDY #$13
3CBB  20 19 64 JSR subysp
3CBE  A5 20    LDA $20
3CC0  A6 21    LDX $21
3CC2  18       CLC
3CC3  69 0D    ADC #$0D
3CC5  90 01    BCC L3CC8
3CC7  E8       INX

L3CC8:
3CC8  20 9C 63 JSR pushax
3CCB  A0 22    LDY #$22
3CCD  B1 20    LDA ($20),Y
3CCF  AA       TAX
3CD0  88       DEY
3CD1  B1 20    LDA ($20),Y
3CD3  20 54 54 JSR _neox_arg_cursor_init
3CD6  A5 20    LDA $20
3CD8  A6 21    LDX $21
3CDA  18       CLC
3CDB  69 0D    ADC #$0D
3CDD  90 01    BCC L3CE0
3CDF  E8       INX

L3CE0:
3CE0  20 9C 63 JSR pushax
3CE3  A5 20    LDA $20
3CE5  A6 21    LDX $21
3CE7  18       CLC
3CE8  69 0B    ADC #$0B
3CEA  90 01    BCC L3CED
3CEC  E8       INX

L3CED:
3CED  20 B0 54 JSR _neox_arg_next
3CF0  C9 00    CMP #$00
3CF2  D0 12    BNE L3D06
3CF4  A0 1E    LDY #$1E
3CF6  B1 20    LDA ($20),Y
3CF8  AA       TAX
3CF9  88       DEY
3CFA  B1 20    LDA ($20),Y
3CFC  20 E0 57 JSR _neox_applet_report
3CFF  A2 00    LDX #$00
3D01  A9 06    LDA #$06
3D03  4C 50 3E JMP L3E50

L3D06:
3D06  A5 20    LDA $20
3D08  A6 21    LDX $21
3D0A  18       CLC
3D0B  69 0D    ADC #$0D
3D0D  90 01    BCC L3D10
3D0F  E8       INX

L3D10:
3D10  20 9C 63 JSR pushax
3D13  A5 20    LDA $20
3D15  A6 21    LDX $21
3D17  18       CLC
3D18  69 07    ADC #$07
3D1A  90 01    BCC L3D1D
3D1C  E8       INX

L3D1D:
3D1D  20 B0 54 JSR _neox_arg_next
3D20  C9 00    CMP #$00
3D22  D0 12    BNE L3D36
3D24  A0 1E    LDY #$1E
3D26  B1 20    LDA ($20),Y
3D28  AA       TAX
3D29  88       DEY
3D2A  B1 20    LDA ($20),Y
3D2C  20 E0 57 JSR _neox_applet_report
3D2F  A2 00    LDX #$00
3D31  A9 06    LDA #$06
3D33  4C 50 3E JMP L3E50

L3D36:
3D36  A5 20    LDA $20
3D38  A6 21    LDX $21
3D3A  18       CLC
3D3B  69 0D    ADC #$0D
3D3D  90 01    BCC L3D40
3D3F  E8       INX

L3D40:
3D40  20 9C 63 JSR pushax
3D43  A5 20    LDA $20
3D45  A6 21    LDX $21
3D47  18       CLC
3D48  69 03    ADC #$03
3D4A  90 01    BCC L3D4D
3D4C  E8       INX

L3D4D:
3D4D  20 B0 54 JSR _neox_arg_next
3D50  C9 00    CMP #$00
3D52  F0 12    BEQ L3D66
3D54  A0 1C    LDY #$1C
3D56  B1 20    LDA ($20),Y
3D58  AA       TAX
3D59  88       DEY
3D5A  B1 20    LDA ($20),Y
3D5C  20 E0 57 JSR _neox_applet_report
3D5F  A2 00    LDX #$00
3D61  A9 06    LDA #$06
3D63  4C 50 3E JMP L3E50

L3D66:
3D66  20 5E 61 JSR decsp4
3D69  A5 20    LDA $20
3D6B  A6 21    LDX $21
3D6D  18       CLC
3D6E  69 0D    ADC #$0D
3D70  90 01    BCC L3D73
3D72  E8       INX

L3D73:
3D73  A0 02    LDY #$02
3D75  91 20    STA ($20),Y
3D77  C8       INY
3D78  8A       TXA
3D79  91 20    STA ($20),Y
3D7B  A9 38    LDA #$38
3D7D  92 20    STA ($20)
3D7F  A0 01    LDY #$01
3D81  A9 67    LDA #$67
3D83  91 20    STA ($20),Y
3D85  A2 00    LDX #$00
3D87  A9 40    LDA #$40
3D89  20 F5 57 JSR _neox_applet_copy_argument
3D8C  92 20    STA ($20)
3D8E  B2 20    LDA ($20)
3D90  F0 0E    BEQ L3DA0
3D92  A0 18    LDY #$18
3D94  B1 20    LDA ($20),Y
3D96  AA       TAX
3D97  88       DEY
3D98  B1 20    LDA ($20),Y
3D9A  20 E0 57 JSR _neox_applet_report
3D9D  4C 4C 3E JMP L3E4C

L3DA0:
3DA0  20 5E 61 JSR decsp4
3DA3  A5 20    LDA $20
3DA5  A6 21    LDX $21
3DA7  18       CLC
3DA8  69 09    ADC #$09
3DAA  90 01    BCC L3DAD
3DAC  E8       INX

L3DAD:
3DAD  A0 02    LDY #$02
3DAF  91 20    STA ($20),Y
3DB1  C8       INY
3DB2  8A       TXA
3DB3  91 20    STA ($20),Y
3DB5  A9 78    LDA #$78
3DB7  92 20    STA ($20)
3DB9  A0 01    LDY #$01
3DBB  A9 67    LDA #$67
3DBD  91 20    STA ($20),Y
3DBF  A2 00    LDX #$00
3DC1  A9 40    LDA #$40
3DC3  20 F5 57 JSR _neox_applet_copy_argument
3DC6  92 20    STA ($20)
3DC8  B2 20    LDA ($20)
3DCA  F0 0D    BEQ L3DD9
3DCC  A0 18    LDY #$18
3DCE  B1 20    LDA ($20),Y
3DD0  AA       TAX
3DD1  88       DEY
3DD2  B1 20    LDA ($20),Y
3DD4  20 E0 57 JSR _neox_applet_report
3DD7  80 73    BRA L3E4C

L3DD9:
3DD9  A0 16    LDY #$16
3DDB  20 B4 63 JSR pushwysp
3DDE  A9 38    LDA #$38
3DE0  A2 67    LDX #$67
3DE2  20 9C 63 JSR pushax
3DE5  A9 78    LDA #$78
3DE7  A2 67    LDX #$67
3DE9  48       PHA
3DEA  A0 02    LDY #$02
3DEC  B1 20    LDA ($20),Y
3DEE  8D 27 64 STA $6427
3DF1  C8       INY
3DF2  B1 20    LDA ($20),Y
3DF4  8D 28 64 STA $6428
3DF7  68       PLA
3DF8  20 26 64 JSR jmpvec
3DFB  20 DC 61 JSR incsp2
3DFE  92 20    STA ($20)
3E00  A2 00    LDX #$00
3E02  B2 20    LDA ($20)
3E04  F0 48    BEQ L3E4E
3E06  20 44 61 JSR decsp2
3E09  A0 18    LDY #$18
3E0B  B1 20    LDA ($20),Y
3E0D  AA       TAX
3E0E  88       DEY
3E0F  B1 20    LDA ($20),Y
3E11  20 E4 63 JSR stax0sp
3E14  A0 02    LDY #$02
3E16  B1 20    LDA ($20),Y
3E18  C9 02    CMP #$02
3E1A  D0 0B    BNE L3E27
3E1C  A0 1B    LDY #$1B
3E1E  B1 20    LDA ($20),Y
3E20  C8       INY
3E21  11 20    ORA ($20),Y
3E23  D0 11    BNE L3E36
3E25  A0 02    LDY #$02

L3E27:
3E27  B1 20    LDA ($20),Y
3E29  C9 06    CMP #$06
3E2B  D0 12    BNE L3E3F
3E2D  A0 19    LDY #$19
3E2F  B1 20    LDA ($20),Y
3E31  C8       INY
3E32  11 20    ORA ($20),Y
3E34  F0 09    BEQ L3E3F

L3E36:
3E36  B1 20    LDA ($20),Y
3E38  AA       TAX
3E39  88       DEY
3E3A  B1 20    LDA ($20),Y
3E3C  20 E4 63 JSR stax0sp

L3E3F:
3E3F  A0 01    LDY #$01
3E41  B1 20    LDA ($20),Y
3E43  AA       TAX
3E44  B2 20    LDA ($20)
3E46  20 E0 57 JSR _neox_applet_report
3E49  20 DC 61 JSR incsp2

L3E4C:
3E4C  A2 00    LDX #$00

L3E4E:
3E4E  B2 20    LDA ($20)

L3E50:
3E50  A0 21    LDY #$21
3E52  4C 2E 61 JMP addysp

_neox_applet_rm:
3E55  20 9C 63 JSR pushax
3E58  A0 0C    LDY #$0C
3E5A  20 19 64 JSR subysp
3E5D  A0 0D    LDY #$0D
3E5F  B1 20    LDA ($20),Y
3E61  AA       TAX
3E62  88       DEY
3E63  B1 20    LDA ($20),Y
3E65  A0 0A    LDY #$0A
3E67  91 20    STA ($20),Y
3E69  C8       INY
3E6A  8A       TXA
3E6B  91 20    STA ($20),Y
3E6D  A9 52    LDA #$52
3E6F  A0 08    LDY #$08
3E71  91 20    STA ($20),Y
3E73  C8       INY
3E74  A9 5B    LDA #$5B
3E76  91 20    STA ($20),Y
3E78  A9 64    LDA #$64
3E7A  A0 06    LDY #$06
3E7C  91 20    STA ($20),Y
3E7E  C8       INY
3E7F  A9 5B    LDA #$5B
3E81  91 20    STA ($20),Y
3E83  A9 7C    LDA #$7C
3E85  A0 04    LDY #$04
3E87  91 20    STA ($20),Y
3E89  C8       INY
3E8A  A9 5B    LDA #$5B
3E8C  91 20    STA ($20),Y
3E8E  A9 95    LDA #$95
3E90  A0 02    LDY #$02
3E92  91 20    STA ($20),Y
3E94  C8       INY
3E95  A9 5B    LDA #$5B
3E97  91 20    STA ($20),Y
3E99  A9 AC    LDA #$AC
3E9B  92 20    STA ($20)
3E9D  A0 01    LDY #$01
3E9F  A9 5B    LDA #$5B
3EA1  91 20    STA ($20),Y
3EA3  A9 50    LDA #$50
3EA5  A2 50    LDX #$50
3EA7  20 8D 3B JSR _neox_applet_run_one_path
3EAA  4C DC 61 JMP incsp2

_neox_applet_mkdir:
3EAD  20 9C 63 JSR pushax
3EB0  A0 0C    LDY #$0C
3EB2  20 19 64 JSR subysp
3EB5  A0 0D    LDY #$0D
3EB7  B1 20    LDA ($20),Y
3EB9  AA       TAX
3EBA  88       DEY
3EBB  B1 20    LDA ($20),Y
3EBD  A0 0A    LDY #$0A
3EBF  91 20    STA ($20),Y
3EC1  C8       INY
3EC2  8A       TXA
3EC3  91 20    STA ($20),Y
3EC5  A9 C4    LDA #$C4
3EC7  A0 08    LDY #$08
3EC9  91 20    STA ($20),Y
3ECB  C8       INY
3ECC  A9 5B    LDA #$5B
3ECE  91 20    STA ($20),Y
3ED0  A9 DE    LDA #$DE
3ED2  A0 06    LDY #$06
3ED4  91 20    STA ($20),Y
3ED6  C8       INY
3ED7  A9 5B    LDA #$5B
3ED9  91 20    STA ($20),Y
3EDB  A9 00    LDA #$00
3EDD  A0 04    LDY #$04
3EDF  91 20    STA ($20),Y
3EE1  C8       INY
3EE2  91 20    STA ($20),Y
3EE4  A9 F9    LDA #$F9
3EE6  A0 02    LDY #$02
3EE8  91 20    STA ($20),Y
3EEA  C8       INY
3EEB  A9 5B    LDA #$5B
3EED  91 20    STA ($20),Y
3EEF  A9 18    LDA #$18
3EF1  92 20    STA ($20)
3EF3  A0 01    LDY #$01
3EF5  A9 5C    LDA #$5C
3EF7  91 20    STA ($20),Y
3EF9  A9 76    LDA #$76
3EFB  A2 50    LDX #$50
3EFD  20 8D 3B JSR _neox_applet_run_one_path
3F00  4C DC 61 JMP incsp2

_neox_applet_rmdir:
3F03  20 9C 63 JSR pushax
3F06  A0 0C    LDY #$0C
3F08  20 19 64 JSR subysp
3F0B  A0 0D    LDY #$0D
3F0D  B1 20    LDA ($20),Y
3F0F  AA       TAX
3F10  88       DEY
3F11  B1 20    LDA ($20),Y
3F13  A0 0A    LDY #$0A
3F15  91 20    STA ($20),Y
3F17  C8       INY
3F18  8A       TXA
3F19  91 20    STA ($20),Y
3F1B  A9 38    LDA #$38
3F1D  A0 08    LDY #$08
3F1F  91 20    STA ($20),Y
3F21  C8       INY
3F22  A9 5C    LDA #$5C
3F24  91 20    STA ($20),Y
3F26  A9 52    LDA #$52
3F28  A0 06    LDY #$06
3F2A  91 20    STA ($20),Y
3F2C  C8       INY
3F2D  A9 5C    LDA #$5C
3F2F  91 20    STA ($20),Y
3F31  A9 6D    LDA #$6D
3F33  A0 04    LDY #$04
3F35  91 20    STA ($20),Y
3F37  C8       INY
3F38  A9 5C    LDA #$5C
3F3A  91 20    STA ($20),Y
3F3C  A9 8E    LDA #$8E
3F3E  A0 02    LDY #$02
3F40  91 20    STA ($20),Y
3F42  C8       INY
3F43  A9 5C    LDA #$5C
3F45  91 20    STA ($20),Y
3F47  A9 AD    LDA #$AD
3F49  92 20    STA ($20)
3F4B  A0 01    LDY #$01
3F4D  A9 5C    LDA #$5C
3F4F  91 20    STA ($20),Y
3F51  A9 9C    LDA #$9C
3F53  A2 50    LDX #$50
3F55  20 8D 3B JSR _neox_applet_run_one_path
3F58  4C DC 61 JMP incsp2

_neox_applet_mv:
3F5B  20 9C 63 JSR pushax
3F5E  A0 0C    LDY #$0C
3F60  20 19 64 JSR subysp
3F63  A0 0D    LDY #$0D
3F65  B1 20    LDA ($20),Y
3F67  AA       TAX
3F68  88       DEY
3F69  B1 20    LDA ($20),Y
3F6B  A0 0A    LDY #$0A
3F6D  91 20    STA ($20),Y
3F6F  C8       INY
3F70  8A       TXA
3F71  91 20    STA ($20),Y
3F73  A9 CD    LDA #$CD
3F75  A0 08    LDY #$08
3F77  91 20    STA ($20),Y
3F79  C8       INY
3F7A  A9 5C    LDA #$5C
3F7C  91 20    STA ($20),Y
3F7E  A9 F2    LDA #$F2
3F80  A0 06    LDY #$06
3F82  91 20    STA ($20),Y
3F84  C8       INY
3F85  A9 5C    LDA #$5C
3F87  91 20    STA ($20),Y
3F89  A9 0A    LDA #$0A
3F8B  A0 04    LDY #$04
3F8D  91 20    STA ($20),Y
3F8F  C8       INY
3F90  A9 5D    LDA #$5D
3F92  91 20    STA ($20),Y
3F94  A9 25    LDA #$25
3F96  A0 02    LDY #$02
3F98  91 20    STA ($20),Y
3F9A  C8       INY
3F9B  A9 5D    LDA #$5D
3F9D  91 20    STA ($20),Y
3F9F  A9 4D    LDA #$4D
3FA1  92 20    STA ($20)
3FA3  A0 01    LDY #$01
3FA5  A9 5D    LDA #$5D
3FA7  91 20    STA ($20),Y
3FA9  A9 C2    LDA #$C2
3FAB  A2 50    LDX #$50
3FAD  20 B6 3C JSR _neox_applet_run_two_paths
3FB0  4C DC 61 JMP incsp2
3FB3  20 9C 63 JSR pushax
3FB6  20 44 61 JSR decsp2
3FB9  A9 00    LDA #$00
3FBB  92 20    STA ($20)
3FBD  A0 01    LDY #$01
3FBF  91 20    STA ($20),Y
3FC1  A0 04    LDY #$04
3FC3  B1 20    LDA ($20),Y
3FC5  18       CLC
3FC6  72 20    ADC ($20)
3FC8  85 28    STA $28
3FCA  C8       INY
3FCB  B1 20    LDA ($20),Y
3FCD  A0 01    LDY #$01
3FCF  71 20    ADC ($20),Y
3FD1  85 29    STA $29
3FD3  B2 28    LDA ($28)
3FD5  85 22    STA $22
3FD7  C8       INY
3FD8  B1 20    LDA ($20),Y
3FDA  18       CLC
3FDB  72 20    ADC ($20)
3FDD  85 28    STA $28
3FDF  C8       INY
3FE0  B1 20    LDA ($20),Y
3FE2  A0 01    LDY #$01
3FE4  71 20    ADC ($20),Y
3FE6  85 29    STA $29
3FE8  B2 28    LDA ($28)
3FEA  C5 22    CMP $22
3FEC  F0 06    BEQ L3FF4
3FEE  A2 00    LDX #$00
3FF0  8A       TXA
3FF1  4C F9 61 JMP incsp6

L3FF4:
3FF4  A0 04    LDY #$04
3FF6  B1 20    LDA ($20),Y
3FF8  18       CLC
3FF9  72 20    ADC ($20)
3FFB  85 28    STA $28
3FFD  C8       INY
3FFE  B1 20    LDA ($20),Y
4000  A0 01    LDY #$01
4002  71 20    ADC ($20),Y
4004  85 29    STA $29
4006  A2 00    LDX #$00
4008  B2 28    LDA ($28)
400A  D0 04    BNE L4010
400C  98       TYA
400D  4C F9 61 JMP incsp6

L4010:
4010  98       TYA
4011  20 1C 61 JSR addeq0sp
4014  80 AB    BRA L3FC1
4016  20 86 63 JSR pusha
4019  A0 02    LDY #$02
401B  B1 20    LDA ($20),Y
401D  F0 06    BEQ L4025
401F  C8       INY
4020  B1 20    LDA ($20),Y
4022  20 42 50 JSR _neox_close

L4025:
4025  B2 20    LDA ($20)
4027  F0 07    BEQ L4030
4029  A0 01    LDY #$01
402B  B1 20    LDA ($20),Y
402D  20 42 50 JSR _neox_close

L4030:
4030  4C EF 61 JMP incsp4

_neox_applet_cp:
4033  20 9C 63 JSR pushax
4036  A0 18    LDY #$18
4038  20 19 64 JSR subysp
403B  A9 00    LDA #$00
403D  A0 01    LDY #$01
403F  91 20    STA ($20),Y
4041  92 20    STA ($20)
4043  A5 20    LDA $20
4045  A6 21    LDX $21
4047  18       CLC
4048  69 12    ADC #$12
404A  90 01    BCC L404D
404C  E8       INX

L404D:
404D  20 9C 63 JSR pushax
4050  A0 1B    LDY #$1B
4052  B1 20    LDA ($20),Y
4054  AA       TAX
4055  88       DEY
4056  B1 20    LDA ($20),Y
4058  20 54 54 JSR _neox_arg_cursor_init
405B  A5 20    LDA $20
405D  A6 21    LDX $21
405F  18       CLC
4060  69 12    ADC #$12
4062  90 01    BCC L4065
4064  E8       INX

L4065:
4065  20 9C 63 JSR pushax
4068  A5 20    LDA $20
406A  A6 21    LDX $21
406C  18       CLC
406D  69 10    ADC #$10
406F  90 01    BCC L4072
4071  E8       INX

L4072:
4072  20 B0 54 JSR _neox_arg_next
4075  C9 00    CMP #$00
4077  D0 0E    BNE L4087
4079  A9 65    LDA #$65
407B  A2 5D    LDX #$5D
407D  20 E0 57 JSR _neox_applet_report
4080  A2 00    LDX #$00
4082  A9 06    LDA #$06
4084  4C 44 43 JMP L4344

L4087:
4087  A5 20    LDA $20
4089  A6 21    LDX $21
408B  18       CLC
408C  69 12    ADC #$12
408E  90 01    BCC L4091
4090  E8       INX

L4091:
4091  20 9C 63 JSR pushax
4094  A5 20    LDA $20
4096  A6 21    LDX $21
4098  18       CLC
4099  69 0C    ADC #$0C
409B  90 01    BCC L409E
409D  E8       INX

L409E:
409E  20 B0 54 JSR _neox_arg_next
40A1  C9 00    CMP #$00
40A3  D0 0E    BNE L40B3
40A5  A9 65    LDA #$65
40A7  A2 5D    LDX #$5D
40A9  20 E0 57 JSR _neox_applet_report
40AC  A2 00    LDX #$00
40AE  A9 06    LDA #$06
40B0  4C 44 43 JMP L4344

L40B3:
40B3  A5 20    LDA $20
40B5  A6 21    LDX $21
40B7  18       CLC
40B8  69 12    ADC #$12
40BA  90 01    BCC L40BD
40BC  E8       INX

L40BD:
40BD  20 9C 63 JSR pushax
40C0  A5 20    LDA $20
40C2  A6 21    LDX $21
40C4  18       CLC
40C5  69 08    ADC #$08
40C7  90 01    BCC L40CA
40C9  E8       INX

L40CA:
40CA  20 B0 54 JSR _neox_arg_next
40CD  C9 00    CMP #$00
40CF  F0 0E    BEQ L40DF
40D1  A9 8A    LDA #$8A
40D3  A2 5D    LDX #$5D
40D5  20 E0 57 JSR _neox_applet_report
40D8  A2 00    LDX #$00
40DA  A9 06    LDA #$06
40DC  4C 44 43 JMP L4344

L40DF:
40DF  20 5E 61 JSR decsp4
40E2  A5 20    LDA $20
40E4  A6 21    LDX $21
40E6  18       CLC
40E7  69 12    ADC #$12
40E9  90 01    BCC L40EC
40EB  E8       INX

L40EC:
40EC  A0 02    LDY #$02
40EE  91 20    STA ($20),Y
40F0  C8       INY
40F1  8A       TXA
40F2  91 20    STA ($20),Y
40F4  A9 B8    LDA #$B8
40F6  92 20    STA ($20)
40F8  A0 01    LDY #$01
40FA  A9 67    LDA #$67
40FC  91 20    STA ($20),Y
40FE  A2 00    LDX #$00
4100  A9 40    LDA #$40
4102  20 F5 57 JSR _neox_applet_copy_argument
4105  A0 03    LDY #$03
4107  91 20    STA ($20),Y
4109  B1 20    LDA ($20),Y
410B  F0 0C    BEQ L4119
410D  A9 BD    LDA #$BD
410F  A2 5D    LDX #$5D
4111  20 E0 57 JSR _neox_applet_report
4114  A0 03    LDY #$03
4116  4C 40 43 JMP L4340

L4119:
4119  20 5E 61 JSR decsp4
411C  A5 20    LDA $20
411E  A6 21    LDX $21
4120  18       CLC
4121  69 0E    ADC #$0E
4123  90 01    BCC L4126
4125  E8       INX

L4126:
4126  88       DEY
4127  91 20    STA ($20),Y
4129  C8       INY
412A  8A       TXA
412B  91 20    STA ($20),Y
412D  A9 F8    LDA #$F8
412F  92 20    STA ($20)
4131  A0 01    LDY #$01
4133  A9 67    LDA #$67
4135  91 20    STA ($20),Y
4137  A2 00    LDX #$00
4139  A9 40    LDA #$40
413B  20 F5 57 JSR _neox_applet_copy_argument
413E  A0 03    LDY #$03
4140  91 20    STA ($20),Y
4142  B1 20    LDA ($20),Y
4144  F0 0C    BEQ L4152

L4146:
4146  A9 BD    LDA #$BD
4148  A2 5D    LDX #$5D
414A  20 E0 57 JSR _neox_applet_report
414D  A0 03    LDY #$03
414F  4C 40 43 JMP L4340

L4152:
4152  A9 B8    LDA #$B8
4154  A2 67    LDX #$67
4156  20 9C 63 JSR pushax
4159  A9 F8    LDA #$F8
415B  A2 67    LDX #$67
415D  20 B3 3F JSR L3FB3
4160  C9 00    CMP #$00
4162  F0 0E    BEQ L4172
4164  A9 E5    LDA #$E5
4166  A2 5D    LDX #$5D
4168  20 E0 57 JSR _neox_applet_report
416B  A2 00    LDX #$00
416D  A9 06    LDA #$06
416F  4C 44 43 JMP L4344

L4172:
4172  20 51 61 JSR decsp3
4175  A9 B8    LDA #$B8
4177  A0 01    LDY #$01
4179  91 20    STA ($20),Y
417B  C8       INY
417C  A9 67    LDA #$67
417E  91 20    STA ($20),Y
4180  A9 00    LDA #$00
4182  92 20    STA ($20)
4184  A5 20    LDA $20
4186  A6 21    LDX $21
4188  18       CLC
4189  69 08    ADC #$08
418B  90 01    BCC L418E
418D  E8       INX

L418E:
418E  20 05 4F JSR _neox_open
4191  A0 03    LDY #$03
4193  91 20    STA ($20),Y
4195  B1 20    LDA ($20),Y
4197  F0 22    BEQ L41BB
4199  C9 02    CMP #$02
419B  D0 06    BNE L41A3
419D  A9 A2    LDA #$A2
419F  A2 5D    LDX #$5D
41A1  80 10    BRA L41B3

L41A3:
41A3  B1 20    LDA ($20),Y
41A5  C9 06    CMP #$06
41A7  D0 06    BNE L41AF
41A9  A9 BD    LDA #$BD
41AB  A2 5D    LDX #$5D
41AD  80 04    BRA L41B3

L41AF:
41AF  A9 0E    LDA #$0E
41B1  A2 5E    LDX #$5E

L41B3:
41B3  20 E0 57 JSR _neox_applet_report
41B6  A0 03    LDY #$03
41B8  4C 40 43 JMP L4340

L41BB:
41BB  1A       INC
41BC  A8       TAY
41BD  91 20    STA ($20),Y
41BF  20 51 61 JSR decsp3
41C2  A9 F8    LDA #$F8
41C4  91 20    STA ($20),Y
41C6  C8       INY
41C7  A9 67    LDA #$67
41C9  91 20    STA ($20),Y
41CB  A9 01    LDA #$01
41CD  92 20    STA ($20)
41CF  A5 20    LDA $20
41D1  A6 21    LDX $21
41D3  18       CLC
41D4  69 07    ADC #$07
41D6  90 01    BCC L41D9
41D8  E8       INX

L41D9:
41D9  20 05 4F JSR _neox_open
41DC  A0 03    LDY #$03
41DE  91 20    STA ($20),Y
41E0  B1 20    LDA ($20),Y
41E2  F0 36    BEQ L421A
41E4  C9 06    CMP #$06
41E6  D0 06    BNE L41EE
41E8  A9 BD    LDA #$BD
41EA  A2 5D    LDX #$5D
41EC  80 04    BRA L41F2

L41EE:
41EE  A9 26    LDA #$26
41F0  A2 5E    LDX #$5E

L41F2:
41F2  20 E0 57 JSR _neox_applet_report
41F5  20 51 61 JSR decsp3
41F8  A0 08    LDY #$08
41FA  B1 20    LDA ($20),Y
41FC  A0 02    LDY #$02
41FE  91 20    STA ($20),Y
4200  A0 04    LDY #$04
4202  B1 20    LDA ($20),Y
4204  A0 01    LDY #$01
4206  91 20    STA ($20),Y
4208  A0 07    LDY #$07
420A  B1 20    LDA ($20),Y
420C  92 20    STA ($20)
420E  A0 03    LDY #$03
4210  B1 20    LDA ($20),Y
4212  20 16 40 JSR L4016
4215  A0 03    LDY #$03
4217  4C 40 43 JMP L4340

L421A:
421A  1A       INC
421B  92 20    STA ($20)
421D  20 44 61 JSR decsp2
4220  A9 00    LDA #$00
4222  92 20    STA ($20)
4224  A0 01    LDY #$01
4226  91 20    STA ($20),Y
4228  20 6B 61 JSR decsp5
422B  A0 0C    LDY #$0C
422D  B1 20    LDA ($20),Y
422F  A0 04    LDY #$04
4231  91 20    STA ($20),Y
4233  A9 38    LDA #$38
4235  A0 02    LDY #$02
4237  91 20    STA ($20),Y
4239  C8       INY
423A  A9 68    LDA #$68
423C  91 20    STA ($20),Y
423E  A9 40    LDA #$40
4240  92 20    STA ($20)
4242  A0 01    LDY #$01
4244  A9 00    LDA #$00
4246  91 20    STA ($20),Y
4248  A5 20    LDA $20
424A  A6 21    LDX $21
424C  18       CLC
424D  69 05    ADC #$05
424F  90 01    BCC L4252
4251  E8       INX

L4252:
4252  20 64 4F JSR _neox_read
4255  A0 05    LDY #$05
4257  91 20    STA ($20),Y
4259  B1 20    LDA ($20),Y
425B  F0 33    BEQ L4290
425D  A9 45    LDA #$45
425F  A2 5E    LDX #$5E
4261  20 E0 57 JSR _neox_applet_report
4264  20 51 61 JSR decsp3
4267  A0 0A    LDY #$0A
4269  B1 20    LDA ($20),Y
426B  A0 02    LDY #$02
426D  91 20    STA ($20),Y
426F  A0 06    LDY #$06
4271  B1 20    LDA ($20),Y
4273  A0 01    LDY #$01
4275  91 20    STA ($20),Y
4277  A0 09    LDY #$09
4279  B1 20    LDA ($20),Y
427B  92 20    STA ($20)
427D  A0 05    LDY #$05
427F  B1 20    LDA ($20),Y
4281  20 16 40 JSR L4016
4284  A0 05    LDY #$05
4286  A2 00    LDX #$00
4288  B1 20    LDA ($20),Y
428A  20 DC 61 JSR incsp2
428D  4C 44 43 JMP L4344

L4290:
4290  B2 20    LDA ($20)
4292  A0 01    LDY #$01
4294  11 20    ORA ($20),Y
4296  D0 05    BNE L429D
4298  20 DC 61 JSR incsp2
429B  80 5F    BRA L42FC

L429D:
429D  20 51 61 JSR decsp3
42A0  A0 09    LDY #$09
42A2  B1 20    LDA ($20),Y
42A4  A0 02    LDY #$02
42A6  91 20    STA ($20),Y
42A8  A9 38    LDA #$38
42AA  92 20    STA ($20)
42AC  88       DEY
42AD  A9 68    LDA #$68
42AF  91 20    STA ($20),Y
42B1  A0 04    LDY #$04
42B3  B1 20    LDA ($20),Y
42B5  AA       TAX
42B6  88       DEY
42B7  B1 20    LDA ($20),Y
42B9  20 F9 56 JSR _neox_applet_write_all
42BC  A0 05    LDY #$05
42BE  91 20    STA ($20),Y
42C0  B1 20    LDA ($20),Y
42C2  F0 32    BEQ L42F6
42C4  A9 55    LDA #$55
42C6  A2 5E    LDX #$5E
42C8  20 E0 57 JSR _neox_applet_report
42CB  20 51 61 JSR decsp3
42CE  A0 0A    LDY #$0A
42D0  B1 20    LDA ($20),Y
42D2  A0 02    LDY #$02
42D4  91 20    STA ($20),Y
42D6  A0 06    LDY #$06
42D8  B1 20    LDA ($20),Y
42DA  A0 01    LDY #$01
42DC  91 20    STA ($20),Y
42DE  A0 09    LDY #$09
42E0  B1 20    LDA ($20),Y
42E2  92 20    STA ($20)
42E4  A0 05    LDY #$05
42E6  B1 20    LDA ($20),Y
42E8  20 16 40 JSR L4016
42EB  A0 05    LDY #$05
42ED  A2 00    LDX #$00
42EF  B1 20    LDA ($20),Y
42F1  20 DC 61 JSR incsp2
42F4  80 4E    BRA L4344

L42F6:
42F6  20 DC 61 JSR incsp2
42F9  4C 1D 42 JMP L421D

L42FC:
42FC  A0 05    LDY #$05
42FE  B1 20    LDA ($20),Y
4300  20 42 50 JSR _neox_close
4303  A0 02    LDY #$02
4305  91 20    STA ($20),Y
4307  A9 00    LDA #$00
4309  88       DEY
430A  91 20    STA ($20),Y
430C  C8       INY
430D  B1 20    LDA ($20),Y
430F  F0 10    BEQ L4321
4311  A9 66    LDA #$66
4313  A2 5E    LDX #$5E
4315  20 E0 57 JSR _neox_applet_report
4318  A0 04    LDY #$04
431A  B1 20    LDA ($20),Y
431C  20 42 50 JSR _neox_close
431F  80 1D    BRA L433E

L4321:
4321  A0 04    LDY #$04
4323  B1 20    LDA ($20),Y
4325  20 42 50 JSR _neox_close
4328  A0 02    LDY #$02
432A  91 20    STA ($20),Y
432C  A9 00    LDA #$00
432E  92 20    STA ($20)
4330  A0 02    LDY #$02
4332  AA       TAX
4333  B1 20    LDA ($20),Y
4335  F0 0D    BEQ L4344
4337  A9 66    LDA #$66
4339  A2 5E    LDX #$5E
433B  20 E0 57 JSR _neox_applet_report

L433E:
433E  A0 02    LDY #$02

L4340:
4340  A2 00    LDX #$00
4342  B1 20    LDA ($20),Y

L4344:
4344  A0 1A    LDY #$1A
4346  4C 2E 61 JMP addysp

_neox_applet_cd:
4349  20 9C 63 JSR pushax
434C  A0 0F    LDY #$0F
434E  20 19 64 JSR subysp
4351  A5 20    LDA $20
4353  A6 21    LDX $21
4355  18       CLC
4356  69 09    ADC #$09
4358  90 01    BCC L435B
435A  E8       INX

L435B:
435B  20 9C 63 JSR pushax
435E  A0 12    LDY #$12
4360  B1 20    LDA ($20),Y
4362  AA       TAX
4363  88       DEY
4364  B1 20    LDA ($20),Y
4366  20 54 54 JSR _neox_arg_cursor_init
4369  A5 20    LDA $20
436B  A6 21    LDX $21
436D  18       CLC
436E  69 09    ADC #$09
4370  90 01    BCC L4373
4372  E8       INX

L4373:
4373  20 9C 63 JSR pushax
4376  A5 20    LDA $20
4378  A6 21    LDX $21
437A  18       CLC
437B  69 07    ADC #$07
437D  90 01    BCC L4380
437F  E8       INX

L4380:
4380  20 B0 54 JSR _neox_arg_next
4383  C9 00    CMP #$00
4385  D0 0A    BNE L4391
4387  A9 2F    LDA #$2F
4389  8D 78 68 STA $6878
438C  9C 79 68 STZ $6879
438F  80 5D    BRA L43EE

L4391:
4391  A5 20    LDA $20
4393  A6 21    LDX $21
4395  18       CLC
4396  69 09    ADC #$09
4398  90 01    BCC L439B
439A  E8       INX

L439B:
439B  20 9C 63 JSR pushax
439E  A5 20    LDA $20
43A0  A6 21    LDX $21
43A2  18       CLC
43A3  69 03    ADC #$03
43A5  90 01    BCC L43A8
43A7  E8       INX

L43A8:
43A8  20 B0 54 JSR _neox_arg_next
43AB  C9 00    CMP #$00
43AD  F0 0D    BEQ L43BC
43AF  A9 77    LDA #$77
43B1  A2 5E    LDX #$5E
43B3  20 E0 57 JSR _neox_applet_report
43B6  A2 00    LDX #$00
43B8  A9 06    LDA #$06
43BA  80 62    BRA L441E

L43BC:
43BC  20 5E 61 JSR decsp4
43BF  A5 20    LDA $20
43C1  A6 21    LDX $21
43C3  18       CLC
43C4  69 09    ADC #$09
43C6  90 01    BCC L43C9
43C8  E8       INX

L43C9:
43C9  A0 02    LDY #$02
43CB  91 20    STA ($20),Y
43CD  C8       INY
43CE  8A       TXA
43CF  91 20    STA ($20),Y
43D1  A9 78    LDA #$78
43D3  92 20    STA ($20)
43D5  A0 01    LDY #$01
43D7  A9 68    LDA #$68
43D9  91 20    STA ($20),Y
43DB  A2 00    LDX #$00
43DD  A9 40    LDA #$40
43DF  20 F5 57 JSR _neox_applet_copy_argument
43E2  92 20    STA ($20)
43E4  B2 20    LDA ($20)
43E6  F0 06    BEQ L43EE
43E8  A9 AD    LDA #$AD
43EA  A2 5E    LDX #$5E
43EC  80 29    BRA L4417

L43EE:
43EE  A9 78    LDA #$78
43F0  A2 68    LDX #$68
43F2  20 FC 50 JSR _neox_chdir
43F5  92 20    STA ($20)
43F7  A2 00    LDX #$00
43F9  B2 20    LDA ($20)
43FB  F0 1F    BEQ L441C
43FD  C9 02    CMP #$02
43FF  D0 06    BNE L4407
4401  A9 8F    LDA #$8F
4403  A2 5E    LDX #$5E
4405  80 10    BRA L4417

L4407:
4407  B2 20    LDA ($20)
4409  C9 06    CMP #$06
440B  D0 06    BNE L4413
440D  A9 AD    LDA #$AD
440F  A2 5E    LDX #$5E
4411  80 04    BRA L4417

L4413:
4413  A9 C9    LDA #$C9
4415  A2 5E    LDX #$5E

L4417:
4417  20 E0 57 JSR _neox_applet_report
441A  A2 00    LDX #$00

L441C:
441C  B2 20    LDA ($20)

L441E:
441E  A0 11    LDY #$11
4420  4C 2E 61 JMP addysp

_neox_applet_pwd:
4423  20 9C 63 JSR pushax
4426  A0 0D    LDY #$0D
4428  20 19 64 JSR subysp
442B  A5 20    LDA $20
442D  A6 21    LDX $21
442F  18       CLC
4430  69 07    ADC #$07
4432  90 01    BCC L4435
4434  E8       INX

L4435:
4435  20 9C 63 JSR pushax
4438  A0 10    LDY #$10
443A  B1 20    LDA ($20),Y
443C  AA       TAX
443D  88       DEY
443E  B1 20    LDA ($20),Y
4440  20 54 54 JSR _neox_arg_cursor_init
4443  A5 20    LDA $20
4445  A6 21    LDX $21
4447  18       CLC
4448  69 07    ADC #$07
444A  90 01    BCC L444D
444C  E8       INX

L444D:
444D  20 9C 63 JSR pushax
4450  A5 20    LDA $20
4452  A6 21    LDX $21
4454  18       CLC
4455  69 05    ADC #$05
4457  90 01    BCC L445A
4459  E8       INX

L445A:
445A  20 B0 54 JSR _neox_arg_next
445D  C9 00    CMP #$00
445F  F0 0E    BEQ L446F
4461  A9 E8    LDA #$E8
4463  A2 5E    LDX #$5E
4465  20 E0 57 JSR _neox_applet_report
4468  A2 00    LDX #$00
446A  A9 06    LDA #$06
446C  4C F3 44 JMP L44F3

L446F:
446F  A0 01    LDY #$01
4471  91 20    STA ($20),Y
4473  C8       INY
4474  91 20    STA ($20),Y
4476  20 5E 61 JSR decsp4
4479  A9 B8    LDA #$B8
447B  91 20    STA ($20),Y
447D  C8       INY
447E  A9 68    LDA #$68
4480  91 20    STA ($20),Y
4482  A9 40    LDA #$40
4484  92 20    STA ($20)
4486  A0 01    LDY #$01
4488  A9 00    LDA #$00
448A  91 20    STA ($20),Y
448C  A5 20    LDA $20
448E  A6 21    LDX $21
4490  18       CLC
4491  69 05    ADC #$05
4493  90 01    BCC L4496
4495  E8       INX

L4496:
4496  20 22 51 JSR _neox_getcwd
4499  92 20    STA ($20)
449B  B2 20    LDA ($20)
449D  F0 06    BEQ L44A5
449F  A9 01    LDA #$01
44A1  A2 5F    LDX #$5F
44A3  80 47    BRA L44EC

L44A5:
44A5  20 51 61 JSR decsp3
44A8  A9 01    LDA #$01
44AA  A0 02    LDY #$02
44AC  91 20    STA ($20),Y
44AE  A9 B8    LDA #$B8
44B0  92 20    STA ($20)
44B2  88       DEY
44B3  A9 68    LDA #$68
44B5  91 20    STA ($20),Y
44B7  A0 05    LDY #$05
44B9  B1 20    LDA ($20),Y
44BB  AA       TAX
44BC  88       DEY
44BD  B1 20    LDA ($20),Y
44BF  20 F9 56 JSR _neox_applet_write_all
44C2  92 20    STA ($20)
44C4  B2 20    LDA ($20)
44C6  D0 20    BNE L44E8
44C8  20 51 61 JSR decsp3
44CB  A9 01    LDA #$01
44CD  A0 02    LDY #$02
44CF  91 20    STA ($20),Y
44D1  A9 E6    LDA #$E6
44D3  92 20    STA ($20)
44D5  88       DEY
44D6  A9 5E    LDA #$5E
44D8  91 20    STA ($20),Y
44DA  A2 00    LDX #$00
44DC  98       TYA
44DD  20 F9 56 JSR _neox_applet_write_all
44E0  92 20    STA ($20)
44E2  A2 00    LDX #$00
44E4  B2 20    LDA ($20)
44E6  F0 09    BEQ L44F1

L44E8:
44E8  A9 24    LDA #$24
44EA  A2 5F    LDX #$5F

L44EC:
44EC  20 E0 57 JSR _neox_applet_report
44EF  A2 00    LDX #$00

L44F1:
44F1  B2 20    LDA ($20)

L44F3:
44F3  A0 0F    LDY #$0F
44F5  4C 2E 61 JMP addysp
44F8  20 9C 63 JSR pushax
44FB  20 3B 61 JSR decsp1
44FE  80 28    BRA L4528
4500  20 51 61 JSR decsp3
4503  A9 01    LDA #$01
4505  A0 02    LDY #$02
4507  91 20    STA ($20),Y
4509  A9 40    LDA #$40
450B  92 20    STA ($20)
450D  88       DEY
450E  A9 5F    LDA #$5F
4510  91 20    STA ($20),Y
4512  A2 00    LDX #$00
4514  98       TYA
4515  20 F9 56 JSR _neox_applet_write_all
4518  92 20    STA ($20)
451A  A2 00    LDX #$00
451C  B2 20    LDA ($20)
451E  F0 03    BEQ L4523
4520  4C EA 61 JMP incsp3

L4523:
4523  1A       INC
4524  A8       TAY
4525  20 06 64 JSR subeqysp

L4528:
4528  A0 01    LDY #$01
452A  B1 20    LDA ($20),Y
452C  C8       INY
452D  11 20    ORA ($20),Y
452F  D0 CF    BNE L4500
4531  AA       TAX
4532  4C EA 61 JMP incsp3
4535  20 9C 63 JSR pushax
4538  20 6B 61 JSR decsp5
453B  A0 06    LDY #$06
453D  B1 20    LDA ($20),Y
453F  AA       TAX
4540  88       DEY
4541  B1 20    LDA ($20),Y
4543  20 C2 56 JSR _neox_applet_string_length
4546  A0 03    LDY #$03
4548  20 E6 63 JSR staxysp
454B  20 51 61 JSR decsp3
454E  A9 01    LDA #$01
4550  A0 02    LDY #$02

L4552:
4552  91 20    STA ($20),Y

L4554:
4554  A0 09    LDY #$09

L4556:
4556  B1 20    LDA ($20),Y
4558  AA       TAX
4559  88       DEY
455A  B1 20    LDA ($20),Y
455C  92 20    STA ($20)
455E  A0 01    LDY #$01
4560  8A       TXA
4561  91 20    STA ($20),Y
4563  A0 07    LDY #$07
4565  B1 20    LDA ($20),Y
4567  AA       TAX
4568  88       DEY
4569  B1 20    LDA ($20),Y
456B  20 F9 56 JSR _neox_applet_write_all
456E  92 20    STA ($20)
4570  A2 00    LDX #$00
4572  B2 20    LDA ($20)
4574  F0 03    BEQ L4579
4576  4C FE 61 JMP incsp7

L4579:
4579  A0 04    LDY #$04
457B  B1 20    LDA ($20),Y
457D  C9 00    CMP #$00
457F  D0 05    BNE L4586
4581  88       DEY
4582  B1 20    LDA ($20),Y
4584  C9 0D    CMP #$0D

L4586:
4586  B0 10    BCS L4598
4588  A9 0D    LDA #$0D
458A  38       SEC
458B  A0 03    LDY #$03
458D  F1 20    SBC ($20),Y
458F  48       PHA
4590  8A       TXA
4591  C8       INY
4592  F1 20    SBC ($20),Y
4594  AA       TAX
4595  68       PLA
4596  80 02    BRA L459A

L4598:
4598  A9 01    LDA #$01

L459A:
459A  20 F8 44 JSR L44F8
459D  92 20    STA ($20)
459F  B2 20    LDA ($20)
45A1  F0 07    BEQ L45AA
45A3  A2 00    LDX #$00
45A5  B2 20    LDA ($20)
45A7  4C FE 61 JMP incsp7

L45AA:
45AA  A0 06    LDY #$06
45AC  B1 20    LDA ($20),Y
45AE  85 29    STA $29
45B0  88       DEY
45B1  B1 20    LDA ($20),Y
45B3  85 28    STA $28
45B5  A0 0D    LDY #$0D
45B7  B1 28    LDA ($28),Y
45B9  29 10    AND #$10
45BB  F0 0E    BEQ L45CB
45BD  A9 01    LDA #$01
45BF  20 86 63 JSR pusha
45C2  A9 38    LDA #$38
45C4  A2 5F    LDX #$5F
45C6  20 B2 57 JSR _neox_applet_write_string
45C9  80 39    BRA L4604

L45CB:
45CB  A0 06    LDY #$06
45CD  B1 20    LDA ($20),Y
45CF  AA       TAX
45D0  88       DEY
45D1  B1 20    LDA ($20),Y
45D3  A0 11    LDY #$11
45D5  20 45 62 JSR ldeaxidx
45D8  20 7C 62 JSR pusheax
45DB  A9 4A    LDA #$4A
45DD  A2 69    LDX #$69
45DF  20 AD 58 JSR _neox_applet_format_u32
45E2  A0 01    LDY #$01
45E4  20 E6 63 JSR staxysp
45E7  20 51 61 JSR decsp3
45EA  A9 01    LDA #$01
45EC  A0 02    LDY #$02
45EE  91 20    STA ($20),Y
45F0  A9 4A    LDA #$4A
45F2  92 20    STA ($20)
45F4  88       DEY
45F5  A9 69    LDA #$69
45F7  91 20    STA ($20),Y
45F9  A0 05    LDY #$05
45FB  B1 20    LDA ($20),Y
45FD  AA       TAX
45FE  88       DEY
45FF  B1 20    LDA ($20),Y
4601  20 F9 56 JSR _neox_applet_write_all

L4604:
4604  92 20    STA ($20)
4606  B2 20    LDA ($20)
4608  F0 07    BEQ L4611
460A  A2 00    LDX #$00
460C  B2 20    LDA ($20)
460E  4C FE 61 JMP incsp7

L4611:
4611  20 51 61 JSR decsp3
4614  A9 01    LDA #$01
4616  A0 02    LDY #$02
4618  91 20    STA ($20),Y
461A  A9 3E    LDA #$3E
461C  92 20    STA ($20)
461E  88       DEY
461F  A9 5F    LDA #$5F
4621  91 20    STA ($20),Y
4623  A2 00    LDX #$00
4625  98       TYA
4626  20 F9 56 JSR _neox_applet_write_all
4629  4C FE 61 JMP incsp7
462C  20 86 63 JSR pusha
462F  20 6B 61 JSR decsp5
4632  A0 09    LDY #$09
4634  20 B4 63 JSR pushwysp
4637  A5 20    LDA $20
4639  A6 21    LDX $21
463B  18       CLC
463C  69 06    ADC #$06
463E  90 01    BCC L4641
4640  E8       INX

L4641:
4641  20 93 51 JSR _neox_opendir
4644  A0 03    LDY #$03
4646  91 20    STA ($20),Y
4648  B1 20    LDA ($20),Y
464A  F0 04    BEQ L4650
464C  4C E0 46 JMP L46E0
464F  8A       TXA

L4650:
4650  A0 01    LDY #$01
4652  91 20    STA ($20),Y
4654  20 51 61 JSR decsp3
4657  A0 07    LDY #$07
4659  B1 20    LDA ($20),Y
465B  A0 02    LDY #$02
465D  91 20    STA ($20),Y
465F  A9 38    LDA #$38
4661  92 20    STA ($20)
4663  88       DEY
4664  A9 69    LDA #$69
4666  91 20    STA ($20),Y
4668  A5 20    LDA $20
466A  A6 21    LDX $21
466C  18       CLC
466D  69 04    ADC #$04
466F  90 01    BCC L4672
4671  E8       INX

L4672:
4672  20 EE 51 JSR _neox_readdir
4675  A0 03    LDY #$03
4677  91 20    STA ($20),Y
4679  B1 20    LDA ($20),Y
467B  F0 12    BEQ L468F
467D  A9 AF    LDA #$AF
467F  A2 5F    LDX #$5F
4681  20 E0 57 JSR _neox_applet_report
4684  A0 04    LDY #$04
4686  B1 20    LDA ($20),Y
4688  20 57 52 JSR _neox_closedir
468B  A0 03    LDY #$03
468D  80 51    BRA L46E0

L468F:
468F  A0 01    LDY #$01
4691  B1 20    LDA ($20),Y
4693  D0 31    BNE L46C6
4695  AD 45 69 LDA $6945
4698  29 10    AND #$10
469A  20 27 63 JSR boolne
469D  92 20    STA ($20)
469F  A0 05    LDY #$05
46A1  D1 20    CMP ($20),Y
46A3  D0 AA    BNE L464F
46A5  A9 38    LDA #$38
46A7  A2 69    LDX #$69
46A9  20 35 45 JSR L4535
46AC  A0 03    LDY #$03
46AE  91 20    STA ($20),Y
46B0  B1 20    LDA ($20),Y
46B2  F0 9C    BEQ L4650
46B4  A9 D0    LDA #$D0
46B6  A2 5F    LDX #$5F
46B8  20 E0 57 JSR _neox_applet_report
46BB  A0 04    LDY #$04
46BD  B1 20    LDA ($20),Y
46BF  20 57 52 JSR _neox_closedir
46C2  A0 03    LDY #$03
46C4  80 1A    BRA L46E0

L46C6:
46C6  A0 04    LDY #$04
46C8  B1 20    LDA ($20),Y
46CA  20 57 52 JSR _neox_closedir
46CD  A0 02    LDY #$02
46CF  91 20    STA ($20),Y
46D1  A2 00    LDX #$00
46D3  B1 20    LDA ($20),Y
46D5  F0 0D    BEQ L46E4
46D7  A9 BF    LDA #$BF
46D9  A2 5F    LDX #$5F
46DB  20 E0 57 JSR _neox_applet_report
46DE  A0 02    LDY #$02

L46E0:
46E0  A2 00    LDX #$00
46E2  B1 20    LDA ($20),Y

L46E4:
46E4  4C 03 62 JMP incsp8

_neox_applet_ls:
46E7  20 9C 63 JSR pushax
46EA  A0 11    LDY #$11
46EC  20 19 64 JSR subysp
46EF  A5 20    LDA $20
46F1  A6 21    LDX $21
46F3  18       CLC
46F4  69 0B    ADC #$0B
46F6  90 01    BCC L46F9
46F8  E8       INX

L46F9:
46F9  20 9C 63 JSR pushax
46FC  A0 14    LDY #$14
46FE  B1 20    LDA ($20),Y
4700  AA       TAX
4701  88       DEY
4702  B1 20    LDA ($20),Y
4704  20 54 54 JSR _neox_arg_cursor_init
4707  A5 20    LDA $20
4709  A6 21    LDX $21
470B  18       CLC
470C  69 0B    ADC #$0B
470E  90 01    BCC L4711
4710  E8       INX

L4711:
4711  20 9C 63 JSR pushax
4714  A5 20    LDA $20
4716  A6 21    LDX $21
4718  18       CLC
4719  69 09    ADC #$09
471B  90 01    BCC L471E
471D  E8       INX

L471E:
471E  20 B0 54 JSR _neox_arg_next
4721  C9 00    CMP #$00
4723  D0 06    BNE L472B
4725  A9 36    LDA #$36
4727  A2 5F    LDX #$5F
4729  80 64    BRA L478F

L472B:
472B  A5 20    LDA $20
472D  A6 21    LDX $21
472F  18       CLC
4730  69 0B    ADC #$0B
4732  90 01    BCC L4735
4734  E8       INX

L4735:
4735  20 9C 63 JSR pushax
4738  A5 20    LDA $20
473A  A6 21    LDX $21
473C  18       CLC
473D  69 05    ADC #$05
473F  90 01    BCC L4742
4741  E8       INX

L4742:
4742  20 B0 54 JSR _neox_arg_next
4745  C9 00    CMP #$00
4747  F0 0E    BEQ L4757
4749  A9 42    LDA #$42
474B  A2 5F    LDX #$5F
474D  20 E0 57 JSR _neox_applet_report
4750  A2 00    LDX #$00
4752  A9 06    LDA #$06
4754  4C FB 47 JMP L47FB

L4757:
4757  20 5E 61 JSR decsp4
475A  A5 20    LDA $20
475C  A6 21    LDX $21
475E  18       CLC
475F  69 0B    ADC #$0B
4761  90 01    BCC L4764
4763  E8       INX

L4764:
4764  A0 02    LDY #$02
4766  91 20    STA ($20),Y
4768  C8       INY
4769  8A       TXA
476A  91 20    STA ($20),Y
476C  A9 F8    LDA #$F8
476E  92 20    STA ($20)
4770  A0 01    LDY #$01
4772  A9 68    LDA #$68
4774  91 20    STA ($20),Y
4776  A2 00    LDX #$00
4778  A9 40    LDA #$40
477A  20 F5 57 JSR _neox_applet_copy_argument
477D  A0 02    LDY #$02
477F  91 20    STA ($20),Y
4781  B1 20    LDA ($20),Y
4783  F0 06    BEQ L478B
4785  A9 78    LDA #$78
4787  A2 5F    LDX #$5F
4789  80 67    BRA L47F2

L478B:
478B  A9 F8    LDA #$F8
478D  A2 68    LDX #$68

L478F:
478F  20 E4 63 JSR stax0sp
4792  20 9C 63 JSR pushax
4795  A9 01    LDA #$01
4797  20 2C 46 JSR L462C
479A  A0 02    LDY #$02
479C  91 20    STA ($20),Y
479E  B1 20    LDA ($20),Y
47A0  F0 1A    BEQ L47BC
47A2  A2 00    LDX #$00
47A4  B1 20    LDA ($20),Y
47A6  C9 02    CMP #$02
47A8  D0 06    BNE L47B0
47AA  A9 5A    LDA #$5A
47AC  A2 5F    LDX #$5F
47AE  80 42    BRA L47F2

L47B0:
47B0  B1 20    LDA ($20),Y
47B2  C9 06    CMP #$06
47B4  D0 2E    BNE L47E4
47B6  A9 78    LDA #$78
47B8  A2 5F    LDX #$5F
47BA  80 36    BRA L47F2

L47BC:
47BC  20 B2 63 JSR pushw0sp
47BF  A9 00    LDA #$00
47C1  20 2C 46 JSR L462C
47C4  A0 02    LDY #$02
47C6  91 20    STA ($20),Y
47C8  A2 00    LDX #$00
47CA  B1 20    LDA ($20),Y
47CC  F0 2B    BEQ L47F9
47CE  C9 02    CMP #$02
47D0  D0 06    BNE L47D8
47D2  A9 5A    LDA #$5A
47D4  A2 5F    LDX #$5F
47D6  80 1A    BRA L47F2

L47D8:
47D8  B1 20    LDA ($20),Y
47DA  C9 06    CMP #$06
47DC  D0 06    BNE L47E4
47DE  A9 78    LDA #$78
47E0  A2 5F    LDX #$5F
47E2  80 0E    BRA L47F2

L47E4:
47E4  B1 20    LDA ($20),Y
47E6  C9 03    CMP #$03
47E8  F0 0F    BEQ L47F9
47EA  C9 09    CMP #$09
47EC  F0 0B    BEQ L47F9
47EE  A9 94    LDA #$94
47F0  A2 5F    LDX #$5F

L47F2:
47F2  20 E0 57 JSR _neox_applet_report
47F5  A0 02    LDY #$02
47F7  A2 00    LDX #$00

L47F9:
47F9  B1 20    LDA ($20),Y

L47FB:
47FB  A0 13    LDY #$13
47FD  4C 2E 61 JMP addysp
4800  20 9C 63 JSR pushax
4803  A9 01    LDA #$01
4805  20 86 63 JSR pusha
4808  A0 02    LDY #$02
480A  B1 20    LDA ($20),Y
480C  AA       TAX
480D  88       DEY
480E  B1 20    LDA ($20),Y
4810  20 B2 57 JSR _neox_applet_write_string
4813  4C DC 61 JMP incsp2
4816  20 86 63 JSR pusha
4819  B2 20    LDA ($20)
481B  20 86 63 JSR pusha
481E  A9 54    LDA #$54
4820  A2 69    LDX #$69
4822  20 91 59 JSR _neox_applet_format_hex8
4825  20 51 61 JSR decsp3
4828  A9 01    LDA #$01
482A  A0 02    LDY #$02
482C  91 20    STA ($20),Y
482E  A9 54    LDA #$54
4830  92 20    STA ($20)
4832  88       DEY
4833  A9 69    LDA #$69
4835  91 20    STA ($20),Y
4837  A2 00    LDX #$00
4839  A9 02    LDA #$02
483B  20 F9 56 JSR _neox_applet_write_all
483E  4C CD 61 JMP incsp1
4841  20 86 63 JSR pusha
4844  20 51 61 JSR decsp3
4847  A0 03    LDY #$03
4849  A2 00    LDX #$00
484B  B1 20    LDA ($20),Y
484D  20 76 62 JSR push0ax
4850  A9 56    LDA #$56
4852  A2 69    LDX #$69
4854  20 AD 58 JSR _neox_applet_format_u32
4857  A0 01    LDY #$01
4859  20 E6 63 JSR staxysp
485C  E0 00    CPX #$00
485E  D0 02    BNE L4862
4860  C9 02    CMP #$02

L4862:
4862  B0 25    BCS L4889
4864  20 51 61 JSR decsp3
4867  A9 01    LDA #$01
4869  A0 02    LDY #$02
486B  91 20    STA ($20),Y
486D  A9 44    LDA #$44
486F  92 20    STA ($20)
4871  88       DEY
4872  A9 60    LDA #$60
4874  91 20    STA ($20),Y
4876  A2 00    LDX #$00
4878  98       TYA
4879  20 F9 56 JSR _neox_applet_write_all
487C  92 20    STA ($20)
487E  B2 20    LDA ($20)
4880  F0 07    BEQ L4889
4882  A2 00    LDX #$00
4884  B2 20    LDA ($20)
4886  4C EF 61 JMP incsp4

L4889:
4889  20 51 61 JSR decsp3
488C  A9 01    LDA #$01
488E  A0 02    LDY #$02
4890  91 20    STA ($20),Y
4892  A9 56    LDA #$56
4894  92 20    STA ($20)
4896  88       DEY
4897  A9 69    LDA #$69
4899  91 20    STA ($20),Y
489B  A0 05    LDY #$05
489D  B1 20    LDA ($20),Y
489F  AA       TAX
48A0  88       DEY
48A1  B1 20    LDA ($20),Y
48A3  20 F9 56 JSR _neox_applet_write_all
48A6  4C EF 61 JMP incsp4
48A9  20 86 63 JSR pusha
48AC  B2 20    LDA ($20)
48AE  F0 1A    BEQ L48CA
48B0  C9 01    CMP #$01
48B2  F0 1D    BEQ L48D1
48B4  C9 02    CMP #$02
48B6  F0 20    BEQ L48D8
48B8  C9 03    CMP #$03
48BA  F0 23    BEQ L48DF
48BC  C9 04    CMP #$04
48BE  F0 26    BEQ L48E6
48C0  C9 05    CMP #$05
48C2  F0 29    BEQ L48ED
48C4  C9 06    CMP #$06
48C6  F0 2C    BEQ L48F4
48C8  80 31    BRA L48FB

L48CA:
48CA  A9 48    LDA #$48
48CC  A2 60    LDX #$60
48CE  4C CD 61 JMP incsp1

L48D1:
48D1  A9 4C    LDA #$4C
48D3  A2 60    LDX #$60
48D5  4C CD 61 JMP incsp1

L48D8:
48D8  A9 50    LDA #$50
48DA  A2 60    LDX #$60
48DC  4C CD 61 JMP incsp1

L48DF:
48DF  A9 54    LDA #$54
48E1  A2 60    LDX #$60
48E3  4C CD 61 JMP incsp1

L48E6:
48E6  A9 58    LDA #$58
48E8  A2 60    LDX #$60
48EA  4C CD 61 JMP incsp1

L48ED:
48ED  A9 5C    LDA #$5C
48EF  A2 60    LDX #$60
48F1  4C CD 61 JMP incsp1

L48F4:
48F4  A9 60    LDA #$60
48F6  A2 60    LDX #$60
48F8  4C CD 61 JMP incsp1

L48FB:
48FB  A9 64    LDA #$64
48FD  A2 60    LDX #$60
48FF  4C CD 61 JMP incsp1
4902  20 86 63 JSR pusha
4905  B2 20    LDA ($20)
4907  F0 22    BEQ L492B
4909  C9 01    CMP #$01
490B  F0 25    BEQ L4932
490D  C9 02    CMP #$02
490F  F0 28    BEQ L4939
4911  C9 03    CMP #$03
4913  F0 2B    BEQ L4940
4915  C9 04    CMP #$04
4917  F0 2E    BEQ L4947
4919  C9 05    CMP #$05
491B  F0 31    BEQ L494E
491D  C9 06    CMP #$06
491F  F0 34    BEQ L4955
4921  C9 07    CMP #$07
4923  F0 37    BEQ L495C
4925  C9 08    CMP #$08
4927  F0 3A    BEQ L4963
4929  80 3F    BRA L496A

L492B:
492B  A9 68    LDA #$68
492D  A2 60    LDX #$60
492F  4C CD 61 JMP incsp1

L4932:
4932  A9 6D    LDA #$6D
4934  A2 60    LDX #$60
4936  4C CD 61 JMP incsp1

L4939:
4939  A9 72    LDA #$72
493B  A2 60    LDX #$60
493D  4C CD 61 JMP incsp1

L4940:
4940  A9 77    LDA #$77
4942  A2 60    LDX #$60
4944  4C CD 61 JMP incsp1

L4947:
4947  A9 7C    LDA #$7C
4949  A2 60    LDX #$60
494B  4C CD 61 JMP incsp1

L494E:
494E  A9 81    LDA #$81

L4950:
4950  A2 60    LDX #$60
4952  4C CD 61 JMP incsp1

L4955:
4955  A9 86    LDA #$86
4957  A2 60    LDX #$60
4959  4C CD 61 JMP incsp1

L495C:
495C  A9 8B    LDA #$8B
495E  A2 60    LDX #$60
4960  4C CD 61 JMP incsp1

L4963:
4963  A9 90    LDA #$90
4965  A2 60    LDX #$60
4967  4C CD 61 JMP incsp1

L496A:
496A  A9 95    LDA #$95
496C  A2 60    LDX #$60
496E  4C CD 61 JMP incsp1
4971  20 86 63 JSR pusha
4974  A0 01    LDY #$01
4976  B1 20    LDA ($20),Y
4978  D0 07    BNE L4981
497A  A9 9A    LDA #$9A
497C  A2 60    LDX #$60
497E  4C DC 61 JMP incsp2

L4981:
4981  B1 20    LDA ($20),Y
4983  C9 06    CMP #$06
4985  F0 06    BEQ L498D
4987  A2 00    LDX #$00
4989  8A       TXA
498A  4C DC 61 JMP incsp2

L498D:
498D  B2 20    LDA ($20)
498F  D0 07    BNE L4998
4991  A9 9E    LDA #$9E
4993  A2 60    LDX #$60
4995  4C DC 61 JMP incsp2

L4998:
4998  B2 20    LDA ($20)
499A  C9 01    CMP #$01
499C  D0 07    BNE L49A5
499E  A9 A2    LDA #$A2
49A0  A2 60    LDX #$60
49A2  4C DC 61 JMP incsp2

L49A5:
49A5  A9 A6    LDA #$A6
49A7  A2 60    LDX #$60
49A9  4C DC 61 JMP incsp2
49AC  20 9C 63 JSR pushax
49AF  20 51 61 JSR decsp3
49B2  A0 04    LDY #$04
49B4  B1 20    LDA ($20),Y
49B6  85 29    STA $29
49B8  88       DEY
49B9  B1 20    LDA ($20),Y
49BB  85 28    STA $28
49BD  B2 28    LDA ($28)
49BF  20 16 48 JSR L4816
49C2  92 20    STA ($20)
49C4  B2 20    LDA ($20)
49C6  F0 07    BEQ L49CF
49C8  A2 00    LDX #$00
49CA  B2 20    LDA ($20)
49CC  4C F4 61 JMP incsp5

L49CF:
49CF  A9 AB    LDA #$AB
49D1  A2 60    LDX #$60
49D3  20 00 48 JSR L4800
49D6  92 20    STA ($20)
49D8  B2 20    LDA ($20)
49DA  F0 07    BEQ L49E3
49DC  A2 00    LDX #$00
49DE  B2 20    LDA ($20)
49E0  4C F4 61 JMP incsp5

L49E3:
49E3  A0 04    LDY #$04
49E5  B1 20    LDA ($20),Y
49E7  85 29    STA $29
49E9  88       DEY
49EA  B1 20    LDA ($20),Y
49EC  85 28    STA $28
49EE  A0 01    LDY #$01
49F0  B1 28    LDA ($28),Y
49F2  20 16 48 JSR L4816
49F5  92 20    STA ($20)
49F7  B2 20    LDA ($20)
49F9  F0 07    BEQ L4A02
49FB  A2 00    LDX #$00
49FD  B2 20    LDA ($20)
49FF  4C F4 61 JMP incsp5

L4A02:
4A02  A9 AA    LDA #$AA
4A04  A2 60    LDX #$60
4A06  20 00 48 JSR L4800
4A09  92 20    STA ($20)
4A0B  B2 20    LDA ($20)
4A0D  F0 07    BEQ L4A16
4A0F  A2 00    LDX #$00
4A11  B2 20    LDA ($20)
4A13  4C F4 61 JMP incsp5

L4A16:
4A16  A0 04    LDY #$04
4A18  B1 20    LDA ($20),Y
4A1A  85 29    STA $29
4A1C  88       DEY
4A1D  B1 20    LDA ($20),Y
4A1F  85 28    STA $28
4A21  88       DEY
4A22  B1 28    LDA ($28),Y
4A24  20 A9 48 JSR L48A9
4A27  20 00 48 JSR L4800
4A2A  92 20    STA ($20)
4A2C  B2 20    LDA ($20)
4A2E  F0 07    BEQ L4A37
4A30  A2 00    LDX #$00
4A32  B2 20    LDA ($20)
4A34  4C F4 61 JMP incsp5

L4A37:
4A37  20 51 61 JSR decsp3
4A3A  A9 01    LDA #$01
4A3C  A0 02    LDY #$02
4A3E  91 20    STA ($20),Y
4A40  A9 44    LDA #$44
4A42  92 20    STA ($20)
4A44  88       DEY
4A45  A9 60    LDA #$60
4A47  91 20    STA ($20),Y
4A49  A2 00    LDX #$00
4A4B  98       TYA
4A4C  20 F9 56 JSR _neox_applet_write_all
4A4F  92 20    STA ($20)
4A51  B2 20    LDA ($20)
4A53  F0 07    BEQ L4A5C
4A55  A2 00    LDX #$00
4A57  B2 20    LDA ($20)
4A59  4C F4 61 JMP incsp5

L4A5C:
4A5C  A0 04    LDY #$04
4A5E  B1 20    LDA ($20),Y
4A60  85 29    STA $29
4A62  88       DEY
4A63  B1 20    LDA ($20),Y
4A65  85 28    STA $28
4A67  B1 28    LDA ($28),Y
4A69  20 02 49 JSR L4902
4A6C  20 00 48 JSR L4800
4A6F  92 20    STA ($20)
4A71  B2 20    LDA ($20)
4A73  F0 07    BEQ L4A7C
4A75  A2 00    LDX #$00
4A77  B2 20    LDA ($20)
4A79  4C F4 61 JMP incsp5

L4A7C:
4A7C  20 51 61 JSR decsp3
4A7F  A9 01    LDA #$01
4A81  A0 02    LDY #$02
4A83  91 20    STA ($20),Y
4A85  A9 44    LDA #$44
4A87  92 20    STA ($20)
4A89  88       DEY
4A8A  A9 60    LDA #$60
4A8C  91 20    STA ($20),Y
4A8E  A2 00    LDX #$00
4A90  98       TYA
4A91  20 F9 56 JSR _neox_applet_write_all
4A94  92 20    STA ($20)
4A96  B2 20    LDA ($20)
4A98  F0 07    BEQ L4AA1
4A9A  A2 00    LDX #$00
4A9C  B2 20    LDA ($20)
4A9E  4C F4 61 JMP incsp5

L4AA1:
4AA1  A0 04    LDY #$04
4AA3  B1 20    LDA ($20),Y
4AA5  85 29    STA $29
4AA7  88       DEY
4AA8  B1 20    LDA ($20),Y
4AAA  85 28    STA $28
4AAC  B1 28    LDA ($28),Y
4AAE  20 86 63 JSR pusha
4AB1  A0 05    LDY #$05
4AB3  B1 20    LDA ($20),Y
4AB5  85 29    STA $29
4AB7  88       DEY
4AB8  B1 20    LDA ($20),Y
4ABA  85 28    STA $28
4ABC  C8       INY
4ABD  B1 28    LDA ($28),Y
4ABF  20 71 49 JSR L4971
4AC2  A0 01    LDY #$01
4AC4  20 E6 63 JSR staxysp
4AC7  E0 00    CPX #$00
4AC9  D0 04    BNE L4ACF
4ACB  C9 00    CMP #$00
4ACD  F0 0D    BEQ L4ADC

L4ACF:
4ACF  A0 02    LDY #$02
4AD1  B1 20    LDA ($20),Y
4AD3  AA       TAX
4AD4  88       DEY
4AD5  B1 20    LDA ($20),Y
4AD7  20 00 48 JSR L4800
4ADA  80 30    BRA L4B0C

L4ADC:
4ADC  A0 04    LDY #$04
4ADE  B1 20    LDA ($20),Y
4AE0  85 29    STA $29
4AE2  88       DEY
4AE3  B1 20    LDA ($20),Y
4AE5  85 28    STA $28
4AE7  A0 05    LDY #$05
4AE9  B1 28    LDA ($28),Y
4AEB  20 16 48 JSR L4816
4AEE  92 20    STA ($20)
4AF0  B2 20    LDA ($20)
4AF2  D0 1A    BNE L4B0E
4AF4  20 51 61 JSR decsp3
4AF7  A9 01    LDA #$01
4AF9  A0 02    LDY #$02
4AFB  91 20    STA ($20),Y
4AFD  A9 44    LDA #$44
4AFF  92 20    STA ($20)
4B01  88       DEY
4B02  A9 60    LDA #$60
4B04  91 20    STA ($20),Y
4B06  A2 00    LDX #$00
4B08  98       TYA
4B09  20 F9 56 JSR _neox_applet_write_all

L4B0C:
4B0C  92 20    STA ($20)

L4B0E:
4B0E  B2 20    LDA ($20)
4B10  F0 07    BEQ L4B19
4B12  A2 00    LDX #$00
4B14  B2 20    LDA ($20)
4B16  4C F4 61 JMP incsp5

L4B19:
4B19  A9 AC    LDA #$AC
4B1B  A2 60    LDX #$60
4B1D  20 00 48 JSR L4800
4B20  92 20    STA ($20)
4B22  B2 20    LDA ($20)
4B24  F0 07    BEQ L4B2D
4B26  A2 00    LDX #$00
4B28  B2 20    LDA ($20)
4B2A  4C F4 61 JMP incsp5

L4B2D:
4B2D  A0 04    LDY #$04
4B2F  B1 20    LDA ($20),Y
4B31  85 29    STA $29
4B33  88       DEY
4B34  B1 20    LDA ($20),Y
4B36  85 28    STA $28
4B38  C8       INY
4B39  B1 28    LDA ($28),Y
4B3B  20 41 48 JSR L4841
4B3E  92 20    STA ($20)
4B40  B2 20    LDA ($20)
4B42  F0 07    BEQ L4B4B
4B44  A2 00    LDX #$00
4B46  B2 20    LDA ($20)
4B48  4C F4 61 JMP incsp5

L4B4B:
4B4B  20 51 61 JSR decsp3
4B4E  A9 01    LDA #$01
4B50  A0 02    LDY #$02
4B52  91 20    STA ($20),Y
4B54  A9 46    LDA #$46
4B56  92 20    STA ($20)
4B58  88       DEY
4B59  A9 60    LDA #$60
4B5B  91 20    STA ($20),Y
4B5D  A2 00    LDX #$00
4B5F  98       TYA
4B60  20 F9 56 JSR _neox_applet_write_all
4B63  4C F4 61 JMP incsp5

_neox_applet_ps:
4B66  20 9C 63 JSR pushax
4B69  A0 0C    LDY #$0C
4B6B  20 19 64 JSR subysp
4B6E  A5 20    LDA $20
4B70  A6 21    LDX $21
4B72  18       CLC
4B73  69 06    ADC #$06
4B75  90 01    BCC L4B78
4B77  E8       INX

L4B78:
4B78  20 9C 63 JSR pushax
4B7B  A0 0F    LDY #$0F
4B7D  B1 20    LDA ($20),Y
4B7F  AA       TAX
4B80  88       DEY
4B81  B1 20    LDA ($20),Y
4B83  20 54 54 JSR _neox_arg_cursor_init
4B86  A5 20    LDA $20
4B88  A6 21    LDX $21
4B8A  18       CLC
4B8B  69 06    ADC #$06
4B8D  90 01    BCC L4B90
4B8F  E8       INX

L4B90:
4B90  20 9C 63 JSR pushax
4B93  A5 20    LDA $20
4B95  A6 21    LDX $21
4B97  18       CLC
4B98  69 04    ADC #$04
4B9A  90 01    BCC L4B9D
4B9C  E8       INX

L4B9D:
4B9D  20 B0 54 JSR _neox_arg_next
4BA0  C9 00    CMP #$00
4BA2  F0 0D    BEQ L4BB1
4BA4  A9 FC    LDA #$FC
4BA6  A2 5F    LDX #$5F
4BA8  20 E0 57 JSR _neox_applet_report
4BAB  A2 00    LDX #$00
4BAD  A9 06    LDA #$06
4BAF  80 6B    BRA L4C1C

L4BB1:
4BB1  A9 E1    LDA #$E1
4BB3  A2 5F    LDX #$5F
4BB5  20 00 48 JSR L4800
4BB8  92 20    STA ($20)
4BBA  B2 20    LDA ($20)
4BBC  F0 0D    BEQ L4BCB
4BBE  A9 33    LDA #$33
4BC0  A2 60    LDX #$60
4BC2  20 E0 57 JSR _neox_applet_report
4BC5  A2 00    LDX #$00
4BC7  B2 20    LDA ($20)
4BC9  80 51    BRA L4C1C

L4BCB:
4BCB  A0 01    LDY #$01
4BCD  91 20    STA ($20),Y
4BCF  A2 00    LDX #$00
4BD1  B1 20    LDA ($20),Y
4BD3  C9 08    CMP #$08
4BD5  B0 44    BCS L4C1B
4BD7  20 86 63 JSR pusha
4BDA  A9 60    LDA #$60
4BDC  A2 69    LDX #$69
4BDE  20 6F 52 JSR _neox_get_process_info
4BE1  92 20    STA ($20)
4BE3  B2 20    LDA ($20)
4BE5  F0 0D    BEQ L4BF4
4BE7  A9 14    LDA #$14
4BE9  A2 60    LDX #$60
4BEB  20 E0 57 JSR _neox_applet_report
4BEE  A2 00    LDX #$00
4BF0  B2 20    LDA ($20)
4BF2  80 28    BRA L4C1C

L4BF4:
4BF4  AD 62 69 LDA $6962
4BF7  F0 1A    BEQ L4C13
4BF9  A9 60    LDA #$60
4BFB  A2 69    LDX #$69
4BFD  20 AC 49 JSR L49AC
4C00  92 20    STA ($20)
4C02  B2 20    LDA ($20)
4C04  F0 0D    BEQ L4C13
4C06  A9 33    LDA #$33
4C08  A2 60    LDX #$60
4C0A  20 E0 57 JSR _neox_applet_report
4C0D  A2 00    LDX #$00
4C0F  B2 20    LDA ($20)
4C11  80 09    BRA L4C1C

L4C13:
4C13  A0 01    LDY #$01
4C15  18       CLC
4C16  98       TYA
4C17  71 20    ADC ($20),Y
4C19  80 B2    BRA L4BCD

L4C1B:
4C1B  8A       TXA

L4C1C:
4C1C  A0 0E    LDY #$0E
4C1E  4C 2E 61 JMP addysp
4C21  20 9C 63 JSR pushax
4C24  20 5E 61 JSR decsp4
4C27  A0 08    LDY #$08
4C29  B1 20    LDA ($20),Y
4C2B  85 29    STA $29
4C2D  88       DEY
4C2E  B1 20    LDA ($20),Y
4C30  85 28    STA $28
4C32  A0 03    LDY #$03
4C34  B1 28    LDA ($28),Y
4C36  AA       TAX
4C37  88       DEY
4C38  B1 28    LDA ($28),Y
4C3A  E0 00    CPX #$00
4C3C  D0 07    BNE L4C45
4C3E  C9 00    CMP #$00
4C40  D0 03    BNE L4C45
4C42  4C 13 4D JMP L4D13

L4C45:
4C45  A9 00    LDA #$00
4C47  92 20    STA ($20)
4C49  88       DEY
4C4A  91 20    STA ($20),Y
4C4C  C8       INY
4C4D  91 20    STA ($20),Y
4C4F  C8       INY
4C50  91 20    STA ($20),Y
4C52  A0 05    LDY #$05
4C54  20 B4 63 JSR pushwysp
4C57  A0 0A    LDY #$0A
4C59  B1 20    LDA ($20),Y
4C5B  85 29    STA $29
4C5D  88       DEY
4C5E  B1 20    LDA ($20),Y
4C60  85 28    STA $28
4C62  A0 03    LDY #$03
4C64  B1 28    LDA ($28),Y
4C66  AA       TAX
4C67  88       DEY
4C68  B1 28    LDA ($28),Y
4C6A  20 A1 61 JSR tosicmp
4C6D  90 03    BCC L4C72
4C6F  4C 00 4D JMP L4D00

L4C72:
4C72  20 3B 61 JSR decsp1
4C75  A0 09    LDY #$09
4C77  B1 20    LDA ($20),Y
4C79  85 29    STA $29
4C7B  88       DEY
4C7C  B1 20    LDA ($20),Y
4C7E  85 28    STA $28
4C80  A0 01    LDY #$01
4C82  B1 28    LDA ($28),Y
4C84  AA       TAX
4C85  B2 28    LDA ($28)
4C87  85 28    STA $28
4C89  86 29    STX $29
4C8B  A0 04    LDY #$04
4C8D  B1 20    LDA ($20),Y
4C8F  AA       TAX
4C90  88       DEY
4C91  B1 20    LDA ($20),Y
4C93  18       CLC
4C94  65 28    ADC $28
4C96  85 28    STA $28
4C98  8A       TXA
4C99  65 29    ADC $29
4C9B  85 29    STA $29
4C9D  B2 28    LDA ($28)
4C9F  92 20    STA ($20)
4CA1  C9 30    CMP #$30
4CA3  90 06    BCC L4CAB
4CA5  B2 20    LDA ($20)
4CA7  C9 3A    CMP #$3A
4CA9  90 08    BCC L4CB3

L4CAB:
4CAB  A2 00    LDX #$00
4CAD  8A       TXA
4CAE  20 CD 61 JSR incsp1
4CB1  80 60    BRA L4D13

L4CB3:
4CB3  88       DEY
4CB4  B1 20    LDA ($20),Y
4CB6  AA       TAX
4CB7  88       DEY
4CB8  B1 20    LDA ($20),Y
4CBA  20 53 63 JSR mulax10
4CBD  85 28    STA $28
4CBF  86 29    STX $29
4CC1  A2 00    LDX #$00
4CC3  B2 20    LDA ($20)
4CC5  38       SEC
4CC6  E9 30    SBC #$30
4CC8  B0 01    BCS L4CCB
4CCA  CA       DEX

L4CCB:
4CCB  18       CLC
4CCC  65 28    ADC $28
4CCE  48       PHA
4CCF  8A       TXA
4CD0  65 29    ADC $29
4CD2  AA       TAX
4CD3  68       PLA
4CD4  A0 01    LDY #$01
4CD6  20 E6 63 JSR staxysp
4CD9  38       SEC
4CDA  A0 07    LDY #$07
4CDC  F1 20    SBC ($20),Y
4CDE  85 30    STA $30
4CE0  8A       TXA
4CE1  E9 00    SBC #$00
4CE3  05 30    ORA $30
4CE5  90 0A    BCC L4CF1
4CE7  F0 08    BEQ L4CF1
4CE9  A2 00    LDX #$00
4CEB  8A       TXA
4CEC  20 CD 61 JSR incsp1
4CEF  80 22    BRA L4D13

L4CF1:
4CF1  20 CD 61 JSR incsp1
4CF4  A0 02    LDY #$02
4CF6  A2 00    LDX #$00
4CF8  A9 01    LDA #$01
4CFA  20 1E 61 JSR addeqysp
4CFD  4C 52 4C JMP L4C52

L4D00:
4D00  A0 05    LDY #$05
4D02  B1 20    LDA ($20),Y
4D04  85 29    STA $29
4D06  88       DEY
4D07  B1 20    LDA ($20),Y
4D09  85 28    STA $28
4D0B  B2 20    LDA ($20)
4D0D  92 28    STA ($28)
4D0F  A2 00    LDX #$00
4D11  A9 01    LDA #$01

L4D13:
4D13  A0 09    LDY #$09
4D15  4C 2E 61 JMP addysp
4D18  20 9C 63 JSR pushax
4D1B  20 6B 61 JSR decsp5
4D1E  A0 08    LDY #$08
4D20  B1 20    LDA ($20),Y
4D22  85 29    STA $29
4D24  88       DEY
4D25  B1 20    LDA ($20),Y
4D27  85 28    STA $28
4D29  A0 03    LDY #$03
4D2B  B1 28    LDA ($28),Y
4D2D  AA       TAX
4D2E  88       DEY
4D2F  B1 28    LDA ($28),Y
4D31  E0 00    CPX #$00
4D33  D0 02    BNE L4D37
4D35  C9 02    CMP #$02

L4D37:
4D37  90 1C    BCC L4D55
4D39  A0 08    LDY #$08
4D3B  B1 20    LDA ($20),Y
4D3D  85 29    STA $29
4D3F  88       DEY
4D40  B1 20    LDA ($20),Y
4D42  85 28    STA $28
4D44  A0 01    LDY #$01
4D46  B1 28    LDA ($28),Y
4D48  AA       TAX
4D49  B2 28    LDA ($28)
4D4B  85 28    STA $28
4D4D  86 29    STX $29
4D4F  B2 28    LDA ($28)
4D51  C9 2D    CMP #$2D
4D53  F0 06    BEQ L4D5B

L4D55:
4D55  A2 00    LDX #$00
4D57  8A       TXA
4D58  4C EA 4D JMP L4DEA

L4D5B:
4D5B  A0 08    LDY #$08
4D5D  B1 20    LDA ($20),Y
4D5F  85 29    STA $29
4D61  88       DEY
4D62  B1 20    LDA ($20),Y
4D64  85 28    STA $28
4D66  A0 01    LDY #$01
4D68  B1 28    LDA ($28),Y
4D6A  AA       TAX
4D6B  B2 28    LDA ($28)
4D6D  1A       INC
4D6E  D0 01    BNE L4D71
4D70  E8       INX

L4D71:
4D71  A0 01    LDY #$01
4D73  20 E6 63 JSR staxysp
4D76  A0 08    LDY #$08
4D78  B1 20    LDA ($20),Y
4D7A  85 29    STA $29
4D7C  88       DEY
4D7D  B1 20    LDA ($20),Y
4D7F  85 28    STA $28
4D81  A0 03    LDY #$03
4D83  B1 28    LDA ($28),Y
4D85  AA       TAX
4D86  88       DEY
4D87  B1 28    LDA ($28),Y
4D89  38       SEC
4D8A  E9 01    SBC #$01
4D8C  B0 01    BCS L4D8F
4D8E  CA       DEX

L4D8F:
4D8F  C8       INY
4D90  20 E6 63 JSR staxysp
4D93  20 51 61 JSR decsp3
4D96  A5 20    LDA $20
4D98  A6 21    LDX $21
4D9A  18       CLC
4D9B  69 04    ADC #$04
4D9D  90 01    BCC L4DA0
4D9F  E8       INX

L4DA0:
4DA0  A0 01    LDY #$01
4DA2  91 20    STA ($20),Y
4DA4  C8       INY
4DA5  8A       TXA
4DA6  91 20    STA ($20),Y
4DA8  A9 13    LDA #$13
4DAA  92 20    STA ($20)
4DAC  A5 20    LDA $20
4DAE  A6 21    LDX $21
4DB0  18       CLC
4DB1  69 03    ADC #$03
4DB3  90 01    BCC L4DB6
4DB5  E8       INX

L4DB6:
4DB6  20 21 4C JSR L4C21
4DB9  C9 00    CMP #$00
4DBB  D0 03    BNE L4DC0
4DBD  AA       TAX
4DBE  80 2A    BRA L4DEA

L4DC0:
4DC0  B2 20    LDA ($20)
4DC2  C9 02    CMP #$02
4DC4  F0 11    BEQ L4DD7
4DC6  C9 09    CMP #$09
4DC8  F0 0D    BEQ L4DD7
4DCA  C9 12    CMP #$12
4DCC  F0 09    BEQ L4DD7
4DCE  C9 13    CMP #$13
4DD0  F0 05    BEQ L4DD7
4DD2  A2 00    LDX #$00
4DD4  8A       TXA
4DD5  80 13    BRA L4DEA

L4DD7:
4DD7  A0 06    LDY #$06
4DD9  B1 20    LDA ($20),Y
4DDB  85 29    STA $29
4DDD  88       DEY
4DDE  B1 20    LDA ($20),Y
4DE0  85 28    STA $28
4DE2  B2 20    LDA ($20)
4DE4  92 28    STA ($28)
4DE6  A2 00    LDX #$00
4DE8  A9 01    LDA #$01

L4DEA:
4DEA  A0 09    LDY #$09
4DEC  4C 2E 61 JMP addysp

_neox_applet_kill:
4DEF  20 9C 63 JSR pushax
4DF2  A0 15    LDY #$15
4DF4  20 19 64 JSR subysp
4DF7  A5 20    LDA $20
4DF9  A6 21    LDX $21
4DFB  18       CLC
4DFC  69 0F    ADC #$0F
4DFE  90 01    BCC L4E01
4E00  E8       INX

L4E01:
4E01  20 9C 63 JSR pushax
4E04  A0 18    LDY #$18
4E06  B1 20    LDA ($20),Y
4E08  AA       TAX
4E09  88       DEY
4E0A  B1 20    LDA ($20),Y
4E0C  20 54 54 JSR _neox_arg_cursor_init
4E0F  A5 20    LDA $20
4E11  A6 21    LDX $21
4E13  18       CLC
4E14  69 0F    ADC #$0F
4E16  90 01    BCC L4E19
4E18  E8       INX

L4E19:
4E19  20 9C 63 JSR pushax
4E1C  A5 20    LDA $20
4E1E  A6 21    LDX $21
4E20  18       CLC
4E21  69 0D    ADC #$0D
4E23  90 01    BCC L4E26
4E25  E8       INX

L4E26:
4E26  20 B0 54 JSR _neox_arg_next
4E29  C9 00    CMP #$00
4E2B  F0 3C    BEQ L4E69
4E2D  A5 20    LDA $20
4E2F  A6 21    LDX $21
4E31  18       CLC
4E32  69 0F    ADC #$0F
4E34  90 01    BCC L4E37
4E36  E8       INX

L4E37:
4E37  20 9C 63 JSR pushax
4E3A  A5 20    LDA $20
4E3C  A6 21    LDX $21
4E3E  18       CLC
4E3F  69 09    ADC #$09
4E41  90 01    BCC L4E44
4E43  E8       INX

L4E44:
4E44  20 B0 54 JSR _neox_arg_next
4E47  C9 00    CMP #$00
4E49  F0 1E    BEQ L4E69
4E4B  A5 20    LDA $20
4E4D  A6 21    LDX $21
4E4F  18       CLC
4E50  69 0F    ADC #$0F
4E52  90 01    BCC L4E55
4E54  E8       INX

L4E55:
4E55  20 9C 63 JSR pushax
4E58  A5 20    LDA $20
4E5A  A6 21    LDX $21
4E5C  18       CLC
4E5D  69 05    ADC #$05
4E5F  90 01    BCC L4E62
4E61  E8       INX

L4E62:
4E62  20 B0 54 JSR _neox_arg_next
4E65  C9 00    CMP #$00
4E67  F0 0E    BEQ L4E77

L4E69:
4E69  A9 AE    LDA #$AE
4E6B  A2 60    LDX #$60
4E6D  20 E0 57 JSR _neox_applet_report
4E70  A2 00    LDX #$00
4E72  A9 06    LDA #$06
4E74  4C 00 4F JMP L4F00

L4E77:
4E77  A5 20    LDA $20
4E79  A6 21    LDX $21
4E7B  18       CLC
4E7C  69 0B    ADC #$0B
4E7E  90 01    BCC L4E81
4E80  E8       INX

L4E81:
4E81  20 9C 63 JSR pushax
4E84  A5 20    LDA $20
4E86  A6 21    LDX $21
4E88  18       CLC
4E89  69 03    ADC #$03
4E8B  90 01    BCC L4E8E
4E8D  E8       INX

L4E8E:
4E8E  20 18 4D JSR L4D18
4E91  C9 00    CMP #$00
4E93  D0 0D    BNE L4EA2
4E95  A9 CD    LDA #$CD
4E97  A2 60    LDX #$60
4E99  20 E0 57 JSR _neox_applet_report
4E9C  A2 00    LDX #$00
4E9E  A9 06    LDA #$06
4EA0  80 5E    BRA L4F00

L4EA2:
4EA2  20 51 61 JSR decsp3
4EA5  A5 20    LDA $20
4EA7  A6 21    LDX $21
4EA9  18       CLC
4EAA  69 0A    ADC #$0A
4EAC  90 01    BCC L4EAF
4EAE  E8       INX

L4EAF:
4EAF  A0 01    LDY #$01
4EB1  91 20    STA ($20),Y
4EB3  C8       INY
4EB4  8A       TXA
4EB5  91 20    STA ($20),Y
4EB7  A9 07    LDA #$07
4EB9  92 20    STA ($20)
4EBB  A5 20    LDA $20
4EBD  A6 21    LDX $21
4EBF  18       CLC
4EC0  69 03    ADC #$03
4EC2  90 01    BCC L4EC5
4EC4  E8       INX

L4EC5:
4EC5  20 21 4C JSR L4C21
4EC8  C9 00    CMP #$00
4ECA  F0 04    BEQ L4ED0
4ECC  B2 20    LDA ($20)
4ECE  D0 0D    BNE L4EDD

L4ED0:
4ED0  A9 E3    LDA #$E3
4ED2  A2 60    LDX #$60
4ED4  20 E0 57 JSR _neox_applet_report
4ED7  A2 00    LDX #$00
4ED9  A9 06    LDA #$06
4EDB  80 23    BRA L4F00

L4EDD:
4EDD  B2 20    LDA ($20)
4EDF  20 86 63 JSR pusha
4EE2  A0 02    LDY #$02
4EE4  B1 20    LDA ($20),Y
4EE6  20 A5 53 JSR _neox_signal
4EE9  A0 02    LDY #$02
4EEB  91 20    STA ($20),Y
4EED  A2 00    LDX #$00
4EEF  B1 20    LDA ($20),Y
4EF1  F0 0B    BEQ L4EFE
4EF3  A9 F6    LDA #$F6
4EF5  A2 60    LDX #$60
4EF7  20 E0 57 JSR _neox_applet_report
4EFA  A0 02    LDY #$02
4EFC  A2 00    LDX #$00

L4EFE:
4EFE  B1 20    LDA ($20),Y

L4F00:
4F00  A0 17    LDY #$17
4F02  4C 2E 61 JMP addysp

_neox_open:
4F05  8D 6D 69 STA neox_open_fd_ptr
4F08  8E 6E 69 STX $696E
4F0B  A0 01    LDY #$01
4F0D  B1 20    LDA ($20),Y
4F0F  8D 67 69 STA neox_open_args
4F12  C8       INY
4F13  B1 20    LDA ($20),Y
4F15  8D 68 69 STA $6968
4F18  A9 40    LDA #$40
4F1A  8D 69 69 STA $6969
4F1D  A9 00    LDA #$00
4F1F  8D 6A 69 STA $696A
4F22  A0 00    LDY #$00
4F24  B1 20    LDA ($20),Y
4F26  8D 6B 69 STA $696B
4F29  9C 6C 69 STZ $696C
4F2C  9C 6F 69 STZ neox_open_result_fd
4F2F  78       SEI
4F30  A2 67    LDX #$67
4F32  A0 69    LDY #$69
4F34  20 03 F1 JSR LF103
4F37  B0 08    BCS @failed
4F39  8D 6F 69 STA neox_open_result_fd
4F3C  9C 70 69 STZ neox_open_status
4F3F  80 04    BRA @store_fd

@failed:
4F41  98       TYA
4F42  8D 70 69 STA neox_open_status

@store_fd:
4F45  AD 6D 69 LDA neox_open_fd_ptr
4F48  0D 6E 69 ORA $696E
4F4B  F0 0F    BEQ @return
4F4D  AD 6D 69 LDA neox_open_fd_ptr
4F50  85 28    STA $28
4F52  AD 6E 69 LDA $696E
4F55  85 29    STA $29
4F57  AD 6F 69 LDA neox_open_result_fd
4F5A  92 28    STA ($28)

@return:
4F5C  AD 70 69 LDA neox_open_status
4F5F  A2 00    LDX #$00
4F61  4C EA 61 JMP incsp3

_neox_read:
4F64  8D 77 69 STA neox_read_count_ptr
4F67  8E 78 69 STX $6978
4F6A  A0 04    LDY #$04
4F6C  B1 20    LDA ($20),Y
4F6E  8D 71 69 STA neox_read_args
4F71  9C 72 69 STZ $6972
4F74  A0 02    LDY #$02
4F76  B1 20    LDA ($20),Y
4F78  8D 73 69 STA $6973
4F7B  C8       INY
4F7C  B1 20    LDA ($20),Y
4F7E  8D 74 69 STA $6974
4F81  A0 00    LDY #$00
4F83  B1 20    LDA ($20),Y
4F85  8D 75 69 STA $6975
4F88  C8       INY
4F89  B1 20    LDA ($20),Y
4F8B  8D 76 69 STA $6976
4F8E  9C 79 69 STZ neox_read_transferred
4F91  9C 7A 69 STZ $697A
4F94  78       SEI
4F95  A2 71    LDX #$71
4F97  A0 69    LDY #$69
4F99  20 09 F1 JSR LF109
4F9C  B0 0B    BCS @failed
4F9E  8D 79 69 STA neox_read_transferred
4FA1  8E 7A 69 STX $697A
4FA4  9C 7B 69 STZ neox_read_status
4FA7  80 04    BRA @store_count

@failed:
4FA9  98       TYA
4FAA  8D 7B 69 STA neox_read_status

@store_count:
4FAD  AD 77 69 LDA neox_read_count_ptr
4FB0  0D 78 69 ORA $6978
4FB3  F0 16    BEQ @return
4FB5  AD 77 69 LDA neox_read_count_ptr
4FB8  85 28    STA $28
4FBA  AD 78 69 LDA $6978
4FBD  85 29    STA $29
4FBF  AD 79 69 LDA neox_read_transferred
4FC2  92 28    STA ($28)
4FC4  A0 01    LDY #$01
4FC6  AD 7A 69 LDA $697A
4FC9  91 28    STA ($28),Y

@return:
4FCB  AD 7B 69 LDA neox_read_status
4FCE  A2 00    LDX #$00
4FD0  4C F4 61 JMP incsp5

_neox_write:
4FD3  8D 82 69 STA neox_write_written_ptr
4FD6  8E 83 69 STX $6983
4FD9  A0 04    LDY #$04
4FDB  B1 20    LDA ($20),Y
4FDD  8D 7C 69 STA neox_write_args
4FE0  9C 7D 69 STZ $697D
4FE3  A0 02    LDY #$02
4FE5  B1 20    LDA ($20),Y
4FE7  8D 7E 69 STA $697E
4FEA  C8       INY
4FEB  B1 20    LDA ($20),Y
4FED  8D 7F 69 STA $697F
4FF0  A0 00    LDY #$00
4FF2  B1 20    LDA ($20),Y
4FF4  8D 80 69 STA $6980
4FF7  C8       INY
4FF8  B1 20    LDA ($20),Y
4FFA  8D 81 69 STA $6981
4FFD  9C 84 69 STZ neox_write_transferred
5000  9C 85 69 STZ $6985
5003  78       SEI
5004  A2 7C    LDX #$7C
5006  A0 69    LDY #$69
5008  20 0C F1 JSR LF10C
500B  B0 0B    BCS @failed
500D  8D 84 69 STA neox_write_transferred
5010  8E 85 69 STX $6985
5013  9C 86 69 STZ neox_write_status
5016  80 04    BRA @store_count

@failed:
5018  98       TYA
5019  8D 86 69 STA neox_write_status

@store_count:
501C  AD 82 69 LDA neox_write_written_ptr
501F  0D 83 69 ORA $6983
5022  F0 16    BEQ @return
5024  AD 82 69 LDA neox_write_written_ptr
5027  85 28    STA $28
5029  AD 83 69 LDA $6983
502C  85 29    STA $29
502E  AD 84 69 LDA neox_write_transferred
5031  92 28    STA ($28)
5033  A0 01    LDY #$01
5035  AD 85 69 LDA $6985
5038  91 28    STA ($28),Y

@return:
503A  AD 86 69 LDA neox_write_status
503D  A2 00    LDX #$00
503F  4C F4 61 JMP incsp5

_neox_close:
5042  78       SEI
5043  20 06 F1 JSR LF106
5046  B0 04    BCS @failed
5048  A9 00    LDA #$00
504A  AA       TAX
504B  60       RTS

@failed:
504C  98       TYA
504D  A2 00    LDX #$00

L504F:
504F  60       RTS

_neox_delete:
5050  8D 87 69 STA neox_delete_args
5053  8E 88 69 STX $6988
5056  A9 40    LDA #$40
5058  8D 89 69 STA $6989
505B  9C 8A 69 STZ $698A
505E  9C 8B 69 STZ $698B
5061  9C 8C 69 STZ $698C
5064  78       SEI
5065  A2 87    LDX #$87
5067  A0 69    LDY #$69
5069  20 24 F1 JSR LF124
506C  B0 04    BCS @failed
506E  A9 00    LDA #$00
5070  AA       TAX
5071  60       RTS

@failed:
5072  98       TYA
5073  A2 00    LDX #$00
5075  60       RTS

_neox_mkdir:
5076  8D 8D 69 STA neox_mkdir_args
5079  8E 8E 69 STX $698E
507C  A9 40    LDA #$40
507E  8D 8F 69 STA $698F
5081  9C 90 69 STZ $6990
5084  9C 91 69 STZ $6991
5087  9C 92 69 STZ $6992
508A  78       SEI
508B  A2 8D    LDX #$8D
508D  A0 69    LDY #$69
508F  20 48 F1 JSR LF148
5092  B0 04    BCS @failed
5094  A9 00    LDA #$00
5096  AA       TAX
5097  60       RTS

@failed:
5098  98       TYA
5099  A2 00    LDX #$00
509B  60       RTS

_neox_rmdir:
509C  8D 93 69 STA neox_rmdir_args
509F  8E 94 69 STX $6994
50A2  A9 40    LDA #$40
50A4  8D 95 69 STA $6995
50A7  9C 96 69 STZ $6996
50AA  9C 97 69 STZ $6997
50AD  9C 98 69 STZ $6998
50B0  78       SEI
50B1  A2 93    LDX #$93
50B3  A0 69    LDY #$69
50B5  20 4B F1 JSR LF14B
50B8  B0 04    BCS @failed
50BA  A9 00    LDA #$00
50BC  AA       TAX
50BD  60       RTS

@failed:
50BE  98       TYA
50BF  A2 00    LDX #$00
50C1  60       RTS

_neox_rename:
50C2  8D 9B 69 STA $699B
50C5  8E 9C 69 STX $699C
50C8  A0 00    LDY #$00
50CA  B1 20    LDA ($20),Y
50CC  8D 99 69 STA neox_rename_args
50CF  C8       INY
50D0  B1 20    LDA ($20),Y
50D2  8D 9A 69 STA $699A
50D5  A9 40    LDA #$40
50D7  8D 9D 69 STA $699D
50DA  A9 00    LDA #$00
50DC  8D 9E 69 STA $699E
50DF  9C 9F 69 STZ $699F
50E2  9C A0 69 STZ $69A0
50E5  78       SEI
50E6  A2 99    LDX #$99
50E8  A0 69    LDY #$69
50EA  20 27 F1 JSR LF127
50ED  B0 07    BCS @failed
50EF  A9 00    LDA #$00
50F1  A2 00    LDX #$00
50F3  4C DC 61 JMP incsp2

@failed:
50F6  98       TYA
50F7  A2 00    LDX #$00
50F9  4C DC 61 JMP incsp2

_neox_chdir:
50FC  8D A1 69 STA neox_chdir_args
50FF  8E A2 69 STX $69A2
5102  A9 40    LDA #$40
5104  8D A3 69 STA $69A3
5107  9C A4 69 STZ $69A4
510A  9C A5 69 STZ $69A5
510D  9C A6 69 STZ $69A6
5110  78       SEI
5111  A2 A1    LDX #$A1
5113  A0 69    LDY #$69
5115  20 42 F1 JSR LF142
5118  B0 04    BCS @failed
511A  A9 00    LDA #$00
511C  AA       TAX
511D  60       RTS

@failed:
511E  98       TYA
511F  A2 00    LDX #$00
5121  60       RTS

_neox_getcwd:
5122  8D AF 69 STA neox_getcwd_length_ptr
5125  8E B0 69 STX $69B0
5128  A0 02    LDY #$02
512A  B1 20    LDA ($20),Y
512C  8D A7 69 STA neox_getcwd_args
512F  C8       INY
5130  B1 20    LDA ($20),Y
5132  8D A8 69 STA $69A8
5135  A0 00    LDY #$00
5137  B1 20    LDA ($20),Y
5139  8D A9 69 STA $69A9
513C  C8       INY
513D  B1 20    LDA ($20),Y
513F  8D AA 69 STA $69AA
5142  9C AB 69 STZ $69AB
5145  9C AC 69 STZ $69AC
5148  9C AD 69 STZ $69AD
514B  9C AE 69 STZ $69AE
514E  9C B1 69 STZ neox_getcwd_result_length
5151  9C B2 69 STZ $69B2
5154  78       SEI
5155  A2 A7    LDX #$A7
5157  A0 69    LDY #$69
5159  20 45 F1 JSR LF145
515C  B0 0B    BCS @failed
515E  8D B1 69 STA neox_getcwd_result_length
5161  8E B2 69 STX $69B2
5164  9C B3 69 STZ neox_getcwd_status
5167  80 04    BRA @store_length

@failed:
5169  98       TYA
516A  8D B3 69 STA neox_getcwd_status

@store_length:
516D  AD AF 69 LDA neox_getcwd_length_ptr
5170  0D B0 69 ORA $69B0
5173  F0 16    BEQ @return
5175  AD AF 69 LDA neox_getcwd_length_ptr
5178  85 28    STA $28
517A  AD B0 69 LDA $69B0
517D  85 29    STA $29
517F  AD B1 69 LDA neox_getcwd_result_length
5182  92 28    STA ($28)
5184  A0 01    LDY #$01
5186  AD B2 69 LDA $69B2
5189  91 28    STA ($28),Y

@return:
518B  AD B3 69 LDA neox_getcwd_status
518E  A2 00    LDX #$00
5190  4C EF 61 JMP incsp4

_neox_opendir:
5193  8D BA 69 STA neox_opendir_fd_ptr
5196  8E BB 69 STX $69BB
5199  A0 00    LDY #$00
519B  B1 20    LDA ($20),Y
519D  8D B4 69 STA neox_opendir_args
51A0  C8       INY
51A1  B1 20    LDA ($20),Y
51A3  8D B5 69 STA $69B5
51A6  A9 40    LDA #$40
51A8  8D B6 69 STA $69B6
51AB  A9 00    LDA #$00
51AD  8D B7 69 STA $69B7
51B0  9C B8 69 STZ $69B8
51B3  9C B9 69 STZ $69B9
51B6  9C BC 69 STZ neox_opendir_result_fd
51B9  78       SEI
51BA  A2 B4    LDX #$B4
51BC  A0 69    LDY #$69
51BE  20 39 F1 JSR LF139
51C1  B0 08    BCS @failed
51C3  8D BC 69 STA neox_opendir_result_fd
51C6  9C BD 69 STZ neox_opendir_status
51C9  80 04    BRA @store_fd

@failed:
51CB  98       TYA
51CC  8D BD 69 STA neox_opendir_status

@store_fd:
51CF  AD BA 69 LDA neox_opendir_fd_ptr
51D2  0D BB 69 ORA $69BB
51D5  F0 0F    BEQ @return
51D7  AD BA 69 LDA neox_opendir_fd_ptr
51DA  85 28    STA $28
51DC  AD BB 69 LDA $69BB
51DF  85 29    STA $29
51E1  AD BC 69 LDA neox_opendir_result_fd
51E4  92 28    STA ($28)

@return:
51E6  AD BD 69 LDA neox_opendir_status
51E9  A2 00    LDX #$00
51EB  4C DC 61 JMP incsp2

_neox_readdir:
51EE  8D C4 69 STA neox_readdir_end_ptr
51F1  8E C5 69 STX $69C5
51F4  A0 02    LDY #$02
51F6  B1 20    LDA ($20),Y
51F8  8D BE 69 STA neox_readdir_args
51FB  9C BF 69 STZ $69BF
51FE  A0 00    LDY #$00
5200  B1 20    LDA ($20),Y
5202  8D C0 69 STA $69C0
5205  C8       INY
5206  B1 20    LDA ($20),Y
5208  8D C1 69 STA $69C1
520B  A9 12    LDA #$12
520D  8D C2 69 STA $69C2
5210  A9 00    LDA #$00
5212  8D C3 69 STA $69C3
5215  9C C6 69 STZ neox_readdir_end_value
5218  78       SEI
5219  A2 BE    LDX #$BE
521B  A0 69    LDY #$69
521D  20 3C F1 JSR LF13C
5220  B0 12    BCS @failed
5222  E0 00    CPX #$00
5224  D0 09    BNE @entry
5226  C9 00    CMP #$00
5228  D0 05    BNE @entry
522A  A9 01    LDA #$01
522C  8D C6 69 STA neox_readdir_end_value

@entry:
522F  9C C7 69 STZ neox_readdir_status
5232  80 04    BRA @store_end

@failed:
5234  98       TYA
5235  8D C7 69 STA neox_readdir_status

@store_end:
5238  AD C4 69 LDA neox_readdir_end_ptr
523B  0D C5 69 ORA $69C5
523E  F0 0F    BEQ @return
5240  AD C4 69 LDA neox_readdir_end_ptr
5243  85 28    STA $28
5245  AD C5 69 LDA $69C5
5248  85 29    STA $29
524A  AD C6 69 LDA neox_readdir_end_value
524D  92 28    STA ($28)

@return:
524F  AD C7 69 LDA neox_readdir_status
5252  A2 00    LDX #$00
5254  4C EA 61 JMP incsp3

_neox_closedir:
5257  8D C8 69 STA neox_closedir_args
525A  9C C9 69 STZ $69C9
525D  78       SEI
525E  A2 C8    LDX #$C8
5260  A0 69    LDY #$69
5262  20 3F F1 JSR LF13F
5265  B0 04    BCS @failed
5267  A9 00    LDA #$00
5269  AA       TAX
526A  60       RTS

@failed:
526B  98       TYA
526C  A2 00    LDX #$00
526E  60       RTS

_neox_get_process_info:
526F  8D CC 69 STA $69CC
5272  8E CD 69 STX $69CD
5275  A0 00    LDY #$00
5277  B1 20    LDA ($20),Y
5279  8D CA 69 STA neox_get_process_info_args
527C  9C CB 69 STZ $69CB
527F  A9 07    LDA #$07
5281  8D CE 69 STA $69CE
5284  A9 00    LDA #$00
5286  8D CF 69 STA $69CF
5289  78       SEI
528A  A2 CA    LDX #$CA
528C  A0 69    LDY #$69
528E  20 4E F1 JSR LF14E
5291  B0 05    BCS @failed
5293  9C D0 69 STZ neox_get_process_info_status
5296  80 04    BRA @return

@failed:
5298  98       TYA
5299  8D D0 69 STA neox_get_process_info_status

@return:
529C  AD D0 69 LDA neox_get_process_info_status
529F  A2 00    LDX #$00
52A1  4C CD 61 JMP incsp1

_neox_seek:
52A4  8D DB 69 STA neox_seek_position_ptr
52A7  8E DC 69 STX $69DC
52AA  A0 05    LDY #$05
52AC  B1 20    LDA ($20),Y
52AE  8D D1 69 STA neox_seek_args
52B1  A0 00    LDY #$00
52B3  B1 20    LDA ($20),Y
52B5  8D D2 69 STA $69D2
52B8  A0 01    LDY #$01
52BA  B1 20    LDA ($20),Y
52BC  8D D3 69 STA $69D3
52BF  C8       INY
52C0  B1 20    LDA ($20),Y
52C2  8D D4 69 STA $69D4
52C5  C8       INY
52C6  B1 20    LDA ($20),Y
52C8  8D D5 69 STA $69D5
52CB  C8       INY
52CC  B1 20    LDA ($20),Y
52CE  8D D6 69 STA $69D6
52D1  9C D7 69 STZ $69D7
52D4  9C D8 69 STZ $69D8
52D7  9C D9 69 STZ $69D9
52DA  9C DA 69 STZ $69DA
52DD  78       SEI
52DE  A2 D1    LDX #$D1
52E0  A0 69    LDY #$69
52E2  20 18 F1 JSR LF118
52E5  B0 05    BCS @failed
52E7  9C DD 69 STZ neox_seek_status
52EA  80 04    BRA @store

@failed:
52EC  98       TYA
52ED  8D DD 69 STA neox_seek_status

@store:
52F0  AD DB 69 LDA neox_seek_position_ptr
52F3  0D DC 69 ORA $69DC
52F6  F0 23    BEQ @return
52F8  AD DB 69 LDA neox_seek_position_ptr
52FB  85 28    STA $28
52FD  AD DC 69 LDA $69DC
5300  85 29    STA $29
5302  A0 00    LDY #$00
5304  AD D7 69 LDA $69D7
5307  91 28    STA ($28),Y
5309  C8       INY
530A  AD D8 69 LDA $69D8
530D  91 28    STA ($28),Y
530F  C8       INY
5310  AD D9 69 LDA $69D9
5313  91 28    STA ($28),Y
5315  C8       INY
5316  AD DA 69 LDA $69DA
5319  91 28    STA ($28),Y

@return:
531B  AD DD 69 LDA neox_seek_status
531E  A2 00    LDX #$00
5320  4C F9 61 JMP incsp6

_neox_spawn_resident:
5323  8D DE 69 STA neox_spawn_pid_out
5326  8E DF 69 STX $69DF
5329  A0 00    LDY #$00
532B  B1 20    LDA ($20),Y
532D  AA       TAX
532E  C8       INY
532F  B1 20    LDA ($20),Y
5331  A8       TAY
5332  78       SEI
5333  20 5A F1 JSR LF15A
5336  B0 08    BCS @failed
5338  8D E1 69 STA neox_spawn_pid
533B  9C E0 69 STZ neox_spawn_status
533E  80 09    BRA @store

@failed:
5340  98       TYA
5341  8D E0 69 STA neox_spawn_status
5344  A9 FF    LDA #$FF

L5346:
5346  8D E1 69 STA neox_spawn_pid

@store:
5349  AD DE 69 LDA neox_spawn_pid_out
534C  0D DF 69 ORA $69DF
534F  F0 0F    BEQ @return
5351  AD DE 69 LDA neox_spawn_pid_out
5354  85 28    STA $28
5356  AD DF 69 LDA $69DF
5359  85 29    STA $29
535B  AD E1 69 LDA neox_spawn_pid
535E  92 28    STA ($28)

@return:
5360  AD E0 69 LDA neox_spawn_status
5363  A2 00    LDX #$00
5365  4C DC 61 JMP incsp2

_neox_waitpid:
5368  8D E2 69 STA neox_wait_exit_ptr
536B  8E E3 69 STX $69E3
536E  A0 00    LDY #$00
5370  B1 20    LDA ($20),Y
5372  20 51 F1 JSR LF151
5375  B0 08    BCS @failed
5377  8D E5 69 STA neox_wait_exit
537A  9C E4 69 STZ neox_wait_status
537D  80 07    BRA @store

@failed:
537F  98       TYA
5380  8D E4 69 STA neox_wait_status
5383  9C E5 69 STZ neox_wait_exit

@store:
5386  AD E2 69 LDA neox_wait_exit_ptr
5389  0D E3 69 ORA $69E3
538C  F0 0F    BEQ @return
538E  AD E2 69 LDA neox_wait_exit_ptr
5391  85 28    STA $28
5393  AD E3 69 LDA $69E3
5396  85 29    STA $29
5398  AD E5 69 LDA neox_wait_exit
539B  92 28    STA ($28)

@return:
539D  AD E4 69 LDA neox_wait_status
53A0  A2 00    LDX #$00
53A2  4C CD 61 JMP incsp1

_neox_signal:
53A5  8D E6 69 STA neox_signal_number
53A8  A0 00    LDY #$00
53AA  B1 20    LDA ($20),Y
53AC  AA       TAX
53AD  AD E6 69 LDA neox_signal_number
53B0  20 36 F1 JSR LF136
53B3  B0 05    BCS @failed
53B5  9C E7 69 STZ neox_signal_status
53B8  80 04    BRA @return

@failed:
53BA  98       TYA
53BB  8D E7 69 STA neox_signal_status

@return:
53BE  AD E7 69 LDA neox_signal_status
53C1  A2 00    LDX #$00
53C3  4C CD 61 JMP incsp1

_neox_get_launch_id:
53C6  8D E8 69 STA neox_launch_id_ptr
53C9  8E E9 69 STX $69E9
53CC  20 54 F1 JSR LF154
53CF  B0 08    BCS @failed
53D1  8D EB 69 STA neox_launch_id_value
53D4  9C EA 69 STZ neox_launch_id_status
53D7  80 09    BRA @store

@failed:
53D9  98       TYA
53DA  8D EA 69 STA neox_launch_id_status
53DD  A9 FF    LDA #$FF
53DF  8D EB 69 STA neox_launch_id_value

@store:
53E2  AD E8 69 LDA neox_launch_id_ptr
53E5  0D E9 69 ORA $69E9
53E8  F0 0F    BEQ @return
53EA  AD E8 69 LDA neox_launch_id_ptr
53ED  85 28    STA $28
53EF  AD E9 69 LDA $69E9
53F2  85 29    STA $29
53F4  AD EB 69 LDA neox_launch_id_value
53F7  92 28    STA ($28)

@return:
53F9  AD EA 69 LDA neox_launch_id_status
53FC  A2 00    LDX #$00
53FE  60       RTS

_neox_get_launch_line:
53FF  8D F0 69 STA neox_launch_line_length_ptr
5402  8E F1 69 STX $69F1
5405  A0 02    LDY #$02
5407  B1 20    LDA ($20),Y
5409  8D EC 69 STA neox_launch_line_args
540C  C8       INY
540D  B1 20    LDA ($20),Y
540F  8D ED 69 STA $69ED
5412  A0 00    LDY #$00
5414  B1 20    LDA ($20),Y
5416  8D EE 69 STA $69EE
5419  9C EF 69 STZ $69EF
541C  78       SEI
541D  A2 EC    LDX #$EC
541F  A0 69    LDY #$69
5421  20 57 F1 JSR LF157
5424  B0 05    BCS @failed
5426  9C F2 69 STZ neox_launch_line_status
5429  80 04    BRA @store

@failed:
542B  98       TYA
542C  8D F2 69 STA neox_launch_line_status

@store:
542F  AD F0 69 LDA neox_launch_line_length_ptr
5432  0D F1 69 ORA $69F1
5435  F0 15    BEQ @return
5437  AD F0 69 LDA neox_launch_line_length_ptr
543A  85 28    STA $28
543C  AD F1 69 LDA $69F1
543F  85 29    STA $29
5441  AD EF 69 LDA $69EF
5444  92 28    STA ($28)
5446  A0 01    LDY #$01
5448  A9 00    LDA #$00
544A  91 28    STA ($28),Y

@return:
544C  AD F2 69 LDA neox_launch_line_status
544F  A2 00    LDX #$00
5451  4C EF 61 JMP incsp4

_neox_arg_cursor_init:
5454  20 9C 63 JSR pushax
5457  A0 03    LDY #$03
5459  B1 20    LDA ($20),Y
545B  85 23    STA $23
545D  88       DEY
545E  B1 20    LDA ($20),Y
5460  85 22    STA $22
5462  88       DEY
5463  B1 20    LDA ($20),Y
5465  85 29    STA $29
5467  B2 20    LDA ($20)
5469  85 28    STA $28
546B  A0 01    LDY #$01
546D  B1 28    LDA ($28),Y
546F  AA       TAX
5470  B2 28    LDA ($28)
5472  92 22    STA ($22)
5474  A0 01    LDY #$01
5476  8A       TXA
5477  91 22    STA ($22),Y
5479  A0 03    LDY #$03
547B  B1 20    LDA ($20),Y
547D  85 23    STA $23
547F  88       DEY
5480  B1 20    LDA ($20),Y
5482  85 22    STA $22
5484  88       DEY
5485  B1 20    LDA ($20),Y
5487  85 29    STA $29
5489  B2 20    LDA ($20)
548B  85 28    STA $28
548D  A0 03    LDY #$03
548F  B1 28    LDA ($28),Y
5491  AA       TAX
5492  88       DEY
5493  B1 28    LDA ($28),Y
5495  91 22    STA ($22),Y
5497  C8       INY
5498  8A       TXA
5499  91 22    STA ($22),Y
549B  B1 20    LDA ($20),Y
549D  85 29    STA $29
549F  88       DEY
54A0  B1 20    LDA ($20),Y
54A2  85 28    STA $28
54A4  A9 00    LDA #$00
54A6  A0 04    LDY #$04
54A8  91 28    STA ($28),Y
54AA  C8       INY
54AB  91 28    STA ($28),Y
54AD  4C EF 61 JMP incsp4

_neox_arg_next:
54B0  20 9C 63 JSR pushax
54B3  20 44 61 JSR decsp2
54B6  80 21    BRA L54D9
54B8  A0 05    LDY #$05
54BA  B1 20    LDA ($20),Y
54BC  AA       TAX
54BD  88       DEY
54BE  B1 20    LDA ($20),Y
54C0  85 22    STA $22
54C2  86 23    STX $23
54C4  85 28    STA $28
54C6  86 29    STX $29
54C8  C8       INY
54C9  B1 28    LDA ($28),Y
54CB  AA       TAX
54CC  88       DEY
54CD  B1 28    LDA ($28),Y
54CF  1A       INC
54D0  D0 01    BNE L54D3
54D2  E8       INX

L54D3:
54D3  91 22    STA ($22),Y
54D5  C8       INY
54D6  8A       TXA
54D7  91 22    STA ($22),Y

L54D9:
54D9  A0 05    LDY #$05
54DB  B1 20    LDA ($20),Y
54DD  85 29    STA $29
54DF  88       DEY
54E0  B1 20    LDA ($20),Y
54E2  85 28    STA $28
54E4  C8       INY
54E5  B1 28    LDA ($28),Y
54E7  AA       TAX
54E8  88       DEY
54E9  B1 28    LDA ($28),Y
54EB  20 9C 63 JSR pushax
54EE  A0 07    LDY #$07
54F0  B1 20    LDA ($20),Y
54F2  85 29    STA $29
54F4  88       DEY
54F5  B1 20    LDA ($20),Y
54F7  85 28    STA $28
54F9  A0 03    LDY #$03
54FB  B1 28    LDA ($28),Y
54FD  AA       TAX
54FE  88       DEY
54FF  B1 28    LDA ($28),Y
5501  20 A1 61 JSR tosicmp
5504  B0 3D    BCS L5543
5506  A0 05    LDY #$05
5508  B1 20    LDA ($20),Y
550A  85 29    STA $29
550C  88       DEY
550D  B1 20    LDA ($20),Y
550F  85 28    STA $28
5511  A0 01    LDY #$01
5513  B1 28    LDA ($28),Y
5515  AA       TAX
5516  B2 28    LDA ($28)
5518  85 22    STA $22
551A  86 23    STX $23
551C  A0 05    LDY #$05
551E  B1 20    LDA ($20),Y
5520  85 29    STA $29
5522  88       DEY
5523  B1 20    LDA ($20),Y
5525  85 28    STA $28
5527  C8       INY
5528  B1 28    LDA ($28),Y
552A  AA       TAX
552B  88       DEY
552C  B1 28    LDA ($28),Y
552E  18       CLC
552F  65 22    ADC $22
5531  85 28    STA $28
5533  8A       TXA
5534  65 23    ADC $23
5536  85 29    STA $29
5538  B2 28    LDA ($28)
553A  20 A8 56 JSR L56A8
553D  AA       TAX
553E  F0 03    BEQ L5543
5540  4C B8 54 JMP L54B8

L5543:
5543  A0 05    LDY #$05
5545  B1 20    LDA ($20),Y
5547  85 29    STA $29
5549  88       DEY
554A  B1 20    LDA ($20),Y
554C  85 28    STA $28
554E  C8       INY
554F  B1 28    LDA ($28),Y
5551  AA       TAX
5552  88       DEY
5553  B1 28    LDA ($28),Y
5555  20 9C 63 JSR pushax
5558  A0 07    LDY #$07
555A  B1 20    LDA ($20),Y
555C  85 29    STA $29
555E  88       DEY
555F  B1 20    LDA ($20),Y
5561  85 28    STA $28
5563  A0 03    LDY #$03
5565  B1 28    LDA ($28),Y
5567  AA       TAX
5568  88       DEY
5569  B1 28    LDA ($28),Y
556B  20 A1 61 JSR tosicmp
556E  90 28    BCC L5598
5570  A0 03    LDY #$03
5572  B1 20    LDA ($20),Y
5574  85 29    STA $29
5576  88       DEY
5577  B1 20    LDA ($20),Y
5579  85 28    STA $28
557B  A9 00    LDA #$00
557D  92 28    STA ($28)
557F  88       DEY
5580  91 28    STA ($28),Y
5582  A0 03    LDY #$03
5584  B1 20    LDA ($20),Y
5586  85 29    STA $29
5588  88       DEY
5589  B1 20    LDA ($20),Y
558B  85 28    STA $28
558D  A9 00    LDA #$00
558F  91 28    STA ($28),Y
5591  C8       INY
5592  91 28    STA ($28),Y
5594  AA       TAX
5595  4C F9 61 JMP incsp6

L5598:
5598  A0 05    LDY #$05
559A  B1 20    LDA ($20),Y
559C  85 29    STA $29
559E  88       DEY
559F  B1 20    LDA ($20),Y
55A1  85 28    STA $28
55A3  C8       INY
55A4  B1 28    LDA ($28),Y
55A6  AA       TAX
55A7  88       DEY
55A8  B1 28    LDA ($28),Y
55AA  20 E4 63 JSR stax0sp
55AD  80 21    BRA L55D0
55AF  A0 05    LDY #$05
55B1  B1 20    LDA ($20),Y
55B3  AA       TAX
55B4  88       DEY
55B5  B1 20    LDA ($20),Y
55B7  85 22    STA $22
55B9  86 23    STX $23
55BB  85 28    STA $28
55BD  86 29    STX $29
55BF  C8       INY
55C0  B1 28    LDA ($28),Y
55C2  AA       TAX
55C3  88       DEY
55C4  B1 28    LDA ($28),Y
55C6  1A       INC
55C7  D0 01    BNE L55CA
55C9  E8       INX

L55CA:
55CA  91 22    STA ($22),Y
55CC  C8       INY
55CD  8A       TXA
55CE  91 22    STA ($22),Y

L55D0:
55D0  A0 05    LDY #$05
55D2  B1 20    LDA ($20),Y
55D4  85 29    STA $29
55D6  88       DEY
55D7  B1 20    LDA ($20),Y
55D9  85 28    STA $28
55DB  C8       INY
55DC  B1 28    LDA ($28),Y
55DE  AA       TAX
55DF  88       DEY
55E0  B1 28    LDA ($28),Y
55E2  20 9C 63 JSR pushax
55E5  A0 07    LDY #$07
55E7  B1 20    LDA ($20),Y
55E9  85 29    STA $29
55EB  88       DEY
55EC  B1 20    LDA ($20),Y
55EE  85 28    STA $28
55F0  A0 03    LDY #$03
55F2  B1 28    LDA ($28),Y
55F4  AA       TAX
55F5  88       DEY
55F6  B1 28    LDA ($28),Y
55F8  20 A1 61 JSR tosicmp
55FB  B0 3D    BCS L563A
55FD  A0 05    LDY #$05
55FF  B1 20    LDA ($20),Y
5601  85 29    STA $29
5603  88       DEY
5604  B1 20    LDA ($20),Y
5606  85 28    STA $28
5608  A0 01    LDY #$01
560A  B1 28    LDA ($28),Y
560C  AA       TAX
560D  B2 28    LDA ($28)
560F  85 22    STA $22
5611  86 23    STX $23
5613  A0 05    LDY #$05
5615  B1 20    LDA ($20),Y
5617  85 29    STA $29
5619  88       DEY
561A  B1 20    LDA ($20),Y
561C  85 28    STA $28
561E  C8       INY
561F  B1 28    LDA ($28),Y
5621  AA       TAX
5622  88       DEY
5623  B1 28    LDA ($28),Y
5625  18       CLC
5626  65 22    ADC $22
5628  85 28    STA $28
562A  8A       TXA
562B  65 23    ADC $23
562D  85 29    STA $29
562F  B2 28    LDA ($28)
5631  20 A8 56 JSR L56A8
5634  AA       TAX
5635  D0 03    BNE L563A
5637  4C AF 55 JMP L55AF

L563A:
563A  A0 03    LDY #$03
563C  B1 20    LDA ($20),Y
563E  85 23    STA $23
5640  88       DEY
5641  B1 20    LDA ($20),Y
5643  85 22    STA $22
5645  A0 05    LDY #$05
5647  B1 20    LDA ($20),Y
5649  85 29    STA $29
564B  88       DEY
564C  B1 20    LDA ($20),Y
564E  85 28    STA $28
5650  A0 01    LDY #$01
5652  B1 28    LDA ($28),Y
5654  AA       TAX
5655  B2 28    LDA ($28)
5657  85 28    STA $28
5659  86 29    STX $29
565B  A0 01    LDY #$01
565D  B1 20    LDA ($20),Y
565F  AA       TAX
5660  B2 20    LDA ($20)
5662  18       CLC
5663  65 28    ADC $28
5665  48       PHA
5666  8A       TXA
5667  65 29    ADC $29
5669  AA       TAX
566A  68       PLA
566B  92 22    STA ($22)
566D  A0 01    LDY #$01
566F  8A       TXA
5670  91 22    STA ($22),Y
5672  A0 03    LDY #$03
5674  B1 20    LDA ($20),Y
5676  85 23    STA $23
5678  88       DEY
5679  B1 20    LDA ($20),Y
567B  85 22    STA $22
567D  A0 05    LDY #$05
567F  B1 20    LDA ($20),Y
5681  85 29    STA $29
5683  88       DEY
5684  B1 20    LDA ($20),Y
5686  85 28    STA $28
5688  C8       INY
5689  B1 28    LDA ($28),Y
568B  AA       TAX
568C  88       DEY
568D  B1 28    LDA ($28),Y
568F  38       SEC
5690  F2 20    SBC ($20)
5692  48       PHA
5693  8A       TXA
5694  A0 01    LDY #$01
5696  F1 20    SBC ($20),Y
5698  AA       TAX
5699  68       PLA
569A  C8       INY
569B  91 22    STA ($22),Y
569D  C8       INY
569E  8A       TXA
569F  91 22    STA ($22),Y
56A1  A2 00    LDX #$00
56A3  A9 01    LDA #$01
56A5  4C F9 61 JMP incsp6

L56A8:
56A8  20 86 63 JSR pusha
56AB  B2 20    LDA ($20)
56AD  C9 20    CMP #$20
56AF  F0 0A    BEQ L56BB
56B1  C9 09    CMP #$09
56B3  F0 06    BEQ L56BB
56B5  A2 00    LDX #$00
56B7  8A       TXA
56B8  4C CD 61 JMP incsp1

L56BB:
56BB  A9 01    LDA #$01
56BD  A2 00    LDX #$00
56BF  4C CD 61 JMP incsp1

_neox_applet_string_length:
56C2  20 9C 63 JSR pushax
56C5  20 44 61 JSR decsp2
56C8  A9 00    LDA #$00
56CA  92 20    STA ($20)
56CC  A0 01    LDY #$01
56CE  91 20    STA ($20),Y
56D0  80 05    BRA L56D7
56D2  A9 01    LDA #$01
56D4  20 1E 61 JSR addeqysp

L56D7:
56D7  A0 02    LDY #$02
56D9  B1 20    LDA ($20),Y
56DB  18       CLC
56DC  72 20    ADC ($20)
56DE  85 28    STA $28
56E0  C8       INY
56E1  B1 20    LDA ($20),Y
56E3  A0 01    LDY #$01
56E5  71 20    ADC ($20),Y
56E7  85 29    STA $29
56E9  88       DEY
56EA  A2 00    LDX #$00
56EC  B2 28    LDA ($28)
56EE  D0 E2    BNE L56D2
56F0  C8       INY
56F1  B1 20    LDA ($20),Y
56F3  AA       TAX
56F4  B2 20    LDA ($20)
56F6  4C EF 61 JMP incsp4

_neox_applet_write_all:
56F9  20 9C 63 JSR pushax
56FC  20 5E 61 JSR decsp4
56FF  A0 07    LDY #$07
5701  B1 20    LDA ($20),Y
5703  AA       TAX
5704  88       DEY
5705  B1 20    LDA ($20),Y
5707  A0 02    LDY #$02
5709  20 E6 63 JSR staxysp
570C  A0 05    LDY #$05
570E  B1 20    LDA ($20),Y
5710  AA       TAX
5711  88       DEY
5712  B1 20    LDA ($20),Y
5714  20 E4 63 JSR stax0sp
5717  4C A1 57 JMP L57A1
571A  20 51 61 JSR decsp3
571D  A0 01    LDY #$01
571F  A9 00    LDA #$00
5721  91 20    STA ($20),Y
5723  C8       INY
5724  91 20    STA ($20),Y
5726  20 6B 61 JSR decsp5
5729  A0 10    LDY #$10
572B  B1 20    LDA ($20),Y
572D  A0 04    LDY #$04
572F  91 20    STA ($20),Y
5731  A0 0B    LDY #$0B
5733  B1 20    LDA ($20),Y
5735  AA       TAX
5736  88       DEY
5737  B1 20    LDA ($20),Y
5739  A0 02    LDY #$02
573B  91 20    STA ($20),Y
573D  C8       INY
573E  8A       TXA
573F  91 20    STA ($20),Y
5741  A0 09    LDY #$09
5743  B1 20    LDA ($20),Y
5745  AA       TAX
5746  88       DEY
5747  B1 20    LDA ($20),Y
5749  92 20    STA ($20)
574B  A0 01    LDY #$01
574D  8A       TXA
574E  91 20    STA ($20),Y
5750  A5 20    LDA $20

L5752:
5752  A6 21    LDX $21
5754  18       CLC
5755  69 06    ADC #$06
5757  90 01    BCC L575A
5759  E8       INX

L575A:
575A  20 D3 4F JSR _neox_write
575D  92 20    STA ($20)
575F  B2 20    LDA ($20)
5761  F0 09    BEQ L576C
5763  A2 00    LDX #$00
5765  B2 20    LDA ($20)
5767  20 EA 61 JSR incsp3
576A  80 41    BRA L57AD

L576C:
576C  A0 01    LDY #$01
576E  B1 20    LDA ($20),Y
5770  C8       INY
5771  11 20    ORA ($20),Y
5773  D0 08    BNE L577D
5775  AA       TAX
5776  A9 03    LDA #$03
5778  20 EA 61 JSR incsp3
577B  80 30    BRA L57AD

L577D:
577D  88       DEY
577E  B1 20    LDA ($20),Y
5780  A0 05    LDY #$05
5782  18       CLC
5783  71 20    ADC ($20),Y
5785  91 20    STA ($20),Y
5787  A0 02    LDY #$02
5789  B1 20    LDA ($20),Y
578B  A0 06    LDY #$06
578D  71 20    ADC ($20),Y
578F  91 20    STA ($20),Y
5791  A0 02    LDY #$02
5793  B1 20    LDA ($20),Y
5795  AA       TAX
5796  88       DEY
5797  B1 20    LDA ($20),Y
5799  A0 03    LDY #$03
579B  20 06 64 JSR subeqysp
579E  20 EA 61 JSR incsp3

L57A1:
57A1  B2 20    LDA ($20)
57A3  A0 01    LDY #$01
57A5  11 20    ORA ($20),Y
57A7  F0 03    BEQ L57AC
57A9  4C 1A 57 JMP L571A

L57AC:
57AC  AA       TAX

L57AD:
57AD  A0 09    LDY #$09
57AF  4C 2E 61 JMP addysp

_neox_applet_write_string:
57B2  20 9C 63 JSR pushax
57B5  20 51 61 JSR decsp3
57B8  A0 05    LDY #$05
57BA  B1 20    LDA ($20),Y
57BC  A0 02    LDY #$02
57BE  91 20    STA ($20),Y
57C0  A0 04    LDY #$04
57C2  B1 20    LDA ($20),Y
57C4  AA       TAX
57C5  88       DEY
57C6  B1 20    LDA ($20),Y
57C8  92 20    STA ($20)
57CA  A0 01    LDY #$01
57CC  8A       TXA
57CD  91 20    STA ($20),Y
57CF  A0 04    LDY #$04
57D1  B1 20    LDA ($20),Y
57D3  AA       TAX
57D4  88       DEY
57D5  B1 20    LDA ($20),Y
57D7  20 C2 56 JSR _neox_applet_string_length
57DA  20 F9 56 JSR _neox_applet_write_all
57DD  4C EA 61 JMP incsp3

_neox_applet_report:
57E0  20 9C 63 JSR pushax
57E3  A9 02    LDA #$02
57E5  20 86 63 JSR pusha
57E8  A8       TAY
57E9  B1 20    LDA ($20),Y
57EB  AA       TAX
57EC  88       DEY
57ED  B1 20    LDA ($20),Y
57EF  20 B2 57 JSR _neox_applet_write_string
57F2  4C DC 61 JMP incsp2

_neox_applet_copy_argument:
57F5  20 9C 63 JSR pushax
57F8  20 44 61 JSR decsp2
57FB  A0 07    LDY #$07
57FD  B1 20    LDA ($20),Y
57FF  85 29    STA $29
5801  88       DEY
5802  B1 20    LDA ($20),Y
5804  85 28    STA $28
5806  A0 03    LDY #$03
5808  B1 28    LDA ($28),Y
580A  AA       TAX
580B  88       DEY
580C  B1 28    LDA ($28),Y
580E  D1 20    CMP ($20),Y
5810  8A       TXA
5811  C8       INY
5812  F1 20    SBC ($20),Y
5814  90 07    BCC L581D
5816  A2 00    LDX #$00
5818  A9 06    LDA #$06
581A  4C 03 62 JMP incsp8

L581D:
581D  A9 00    LDA #$00
581F  92 20    STA ($20)
5821  A0 01    LDY #$01
5823  91 20    STA ($20),Y
5825  20 B2 63 JSR pushw0sp
5828  A0 09    LDY #$09
582A  B1 20    LDA ($20),Y
582C  85 29    STA $29
582E  88       DEY
582F  B1 20    LDA ($20),Y
5831  85 28    STA $28
5833  A0 03    LDY #$03
5835  B1 28    LDA ($28),Y
5837  AA       TAX
5838  88       DEY
5839  B1 28    LDA ($28),Y
583B  20 A1 61 JSR tosicmp
583E  B0 45    BCS L5885
5840  A0 04    LDY #$04
5842  B1 20    LDA ($20),Y
5844  18       CLC
5845  72 20    ADC ($20)
5847  85 22    STA $22
5849  C8       INY
584A  B1 20    LDA ($20),Y
584C  A0 01    LDY #$01
584E  71 20    ADC ($20),Y
5850  85 23    STA $23
5852  A0 07    LDY #$07
5854  B1 20    LDA ($20),Y
5856  85 29    STA $29
5858  88       DEY
5859  B1 20    LDA ($20),Y
585B  85 28    STA $28
585D  A0 01    LDY #$01
585F  B1 28    LDA ($28),Y
5861  AA       TAX
5862  B2 28    LDA ($28)
5864  85 28    STA $28
5866  86 29    STX $29
5868  A0 01    LDY #$01
586A  B1 20    LDA ($20),Y
586C  AA       TAX
586D  B2 20    LDA ($20)
586F  18       CLC
5870  65 28    ADC $28
5872  85 28    STA $28
5874  8A       TXA
5875  65 29    ADC $29
5877  85 29    STA $29
5879  B2 28    LDA ($28)
587B  92 22    STA ($22)
587D  A2 00    LDX #$00
587F  98       TYA
5880  20 1C 61 JSR addeq0sp
5883  80 A0    BRA L5825

L5885:
5885  A0 07    LDY #$07
5887  B1 20    LDA ($20),Y
5889  85 29    STA $29
588B  88       DEY
588C  B1 20    LDA ($20),Y
588E  85 28    STA $28
5890  A0 03    LDY #$03
5892  B1 28    LDA ($28),Y
5894  AA       TAX
5895  88       DEY
5896  B1 28    LDA ($28),Y
5898  18       CLC
5899  A0 04    LDY #$04
589B  71 20    ADC ($20),Y
589D  85 28    STA $28
589F  8A       TXA
58A0  C8       INY
58A1  71 20    ADC ($20),Y
58A3  85 29    STA $29
58A5  A9 00    LDA #$00
58A7  92 28    STA ($28)
58A9  AA       TAX
58AA  4C 03 62 JMP incsp8

_neox_applet_format_u32:
58AD  20 9C 63 JSR pushax
58B0  A0 0E    LDY #$0E
58B2  20 19 64 JSR subysp
58B5  A0 02    LDY #$02
58B7  A9 00    LDA #$00
58B9  91 20    STA ($20),Y
58BB  C8       INY
58BC  91 20    STA ($20),Y
58BE  A0 03    LDY #$03
58C0  B1 20    LDA ($20),Y
58C2  AA       TAX
58C3  88       DEY
58C4  B1 20    LDA ($20),Y
58C6  18       CLC
58C7  69 04    ADC #$04
58C9  90 02    BCC L58CD
58CB  E8       INX
58CC  18       CLC

L58CD:
58CD  65 20    ADC $20
58CF  A8       TAY
58D0  8A       TXA
58D1  65 21    ADC $21
58D3  AA       TAX
58D4  98       TYA
58D5  20 9C 63 JSR pushax
58D8  A0 15    LDY #$15
58DA  20 5C 62 JSR ldeaxysp
58DD  20 7C 62 JSR pusheax
58E0  A9 0A    LDA #$0A
58E2  A2 00    LDX #$00
58E4  20 0E 63 JSR tosumod0ax
58E7  18       CLC
58E8  69 30    ADC #$30
58EA  A0 00    LDY #$00
58EC  20 CE 63 JSR staspidx
58EF  A0 02    LDY #$02
58F1  A2 00    LDX #$00
58F3  A9 01    LDA #$01
58F5  20 1E 61 JSR addeqysp
58F8  A0 13    LDY #$13
58FA  20 5C 62 JSR ldeaxysp
58FD  20 7C 62 JSR pusheax
5900  A9 0A    LDA #$0A
5902  A2 00    LDX #$00
5904  20 94 62 JSR tosudiv0ax
5907  A0 10    LDY #$10
5909  20 F1 63 JSR steaxysp
590C  A0 13    LDY #$13
590E  20 5C 62 JSR ldeaxysp
5911  20 7C 62 JSR pusheax
5914  A9 00    LDA #$00
5916  64 23    STZ $23
5918  64 22    STZ $22
591A  AA       TAX
591B  20 6D 62 JSR tosneeax
591E  D0 9E    BNE L58BE
5920  A9 00    LDA #$00
5922  92 20    STA ($20)
5924  A0 01    LDY #$01
5926  91 20    STA ($20),Y
5928  A0 01    LDY #$01
592A  B1 20    LDA ($20),Y
592C  AA       TAX
592D  B2 20    LDA ($20)
592F  C8       INY
5930  D1 20    CMP ($20),Y
5932  8A       TXA
5933  C8       INY
5934  F1 20    SBC ($20),Y
5936  B0 4E    BCS L5986
5938  A0 0E    LDY #$0E
593A  B1 20    LDA ($20),Y
593C  18       CLC
593D  72 20    ADC ($20)
593F  48       PHA
5940  C8       INY
5941  B1 20    LDA ($20),Y
5943  A0 01    LDY #$01
5945  71 20    ADC ($20),Y
5947  AA       TAX
5948  68       PLA
5949  20 9C 63 JSR pushax
594C  A0 05    LDY #$05
594E  B1 20    LDA ($20),Y
5950  AA       TAX
5951  88       DEY
5952  B1 20    LDA ($20),Y
5954  38       SEC
5955  A0 02    LDY #$02
5957  F1 20    SBC ($20),Y
5959  48       PHA
595A  8A       TXA
595B  C8       INY
595C  F1 20    SBC ($20),Y
595E  AA       TAX
595F  68       PLA
5960  38       SEC
5961  E9 01    SBC #$01
5963  B0 01    BCS L5966
5965  CA       DEX

L5966:
5966  18       CLC
5967  69 06    ADC #$06
5969  90 02    BCC L596D
596B  E8       INX
596C  18       CLC

L596D:
596D  65 20    ADC $20
596F  85 28    STA $28
5971  8A       TXA
5972  65 21    ADC $21
5974  85 29    STA $29
5976  A0 00    LDY #$00
5978  B2 28    LDA ($28)
597A  20 CE 63 JSR staspidx
597D  A2 00    LDX #$00
597F  A9 01    LDA #$01
5981  20 1C 61 JSR addeq0sp
5984  80 A2    BRA L5928

L5986:
5986  B1 20    LDA ($20),Y
5988  AA       TAX
5989  88       DEY
598A  B1 20    LDA ($20),Y
598C  A0 14    LDY #$14
598E  4C 2E 61 JMP addysp

_neox_applet_format_hex8:
5991  20 9C 63 JSR pushax
5994  A0 01    LDY #$01
5996  B1 20    LDA ($20),Y
5998  85 23    STA $23
599A  B2 20    LDA ($20)
599C  85 22    STA $22
599E  C8       INY
599F  B1 20    LDA ($20),Y
59A1  4A       LSR
59A2  4A       LSR
59A3  4A       LSR
59A4  4A       LSR
59A5  85 28    STA $28
59A7  18       CLC
59A8  A9 61    LDA #$61
59AA  85 29    STA $29
59AC  A0 0B    LDY #$0B
59AE  B1 28    LDA ($28),Y
59B0  92 22    STA ($22)
59B2  A0 01    LDY #$01
59B4  B1 20    LDA ($20),Y
59B6  AA       TAX
59B7  B2 20    LDA ($20)
59B9  1A       INC
59BA  D0 01    BNE L59BD
59BC  E8       INX

L59BD:
59BD  85 22    STA $22
59BF  86 23    STX $23
59C1  C8       INY
59C2  B1 20    LDA ($20),Y
59C4  29 0F    AND #$0F
59C6  85 28    STA $28
59C8  18       CLC
59C9  A9 61    LDA #$61
59CB  85 29    STA $29
59CD  A0 0B    LDY #$0B
59CF  B1 28    LDA ($28),Y
59D1  92 22    STA ($22)
59D3  4C EA 61 JMP incsp3
59D6  6E 62 6F ROR $6F62
59D9  78       SEI
59DA  3A       DEC
59DB  20 63 6F JSR L6F63
59DE  6D 6D 61 ADC $616D
59E1  6E 64 20 ROR $2064
59E4  6E 6F 74 ROR $746F
59E7  20 66 6F JSR L6F66
59EA  75 6E    ADC $6E,X
59EC  64 0D    STZ $0D
59EE  00       BRK
59EF  51 5A    EOR ($5A),Y
59F1  01 01    ORA ($01,X)
59F3  23       .byte $23
59F4  44       .byte $44
59F5  61 5A    ADC ($5A,X)
59F7  02       .byte $02
59F8  00       BRK
59F9  49 43    EOR #$43
59FB  58       CLI
59FC  5A       PHY
59FD  03       .byte $03
59FE  01 E7    ORA ($E7,X)
5A00  46 4D    LSR $4D
5A02  5A       PHY
5A03  04 01    TSB $01
5A05  74 3A    STZ $3A,X
5A07  43       .byte $43
5A08  5A       PHY
5A09  0B       .byte $0B
5A0A  01 25    ORA ($25,X)
5A0C  39 55 5A AND $5A55,Y
5A0F  05 01    ORA $01
5A11  55 3E    EOR $3E,X
5A13  64 5A    STZ $5A
5A15  06 01    ASL $01
5A17  5B       .byte $5B
5A18  3F 3D 5A BBR3 $3D,L5A75
5A1B  07 01    RMB0 $01
5A1D  AD 3E 37 LDA $373E
5A20  5A       PHY
5A21  08       PHP
5A22  01 03    ORA ($03,X)
5A24  3F 5B 5A BBR3 $5B,L5A81
5A27  09 01    ORA #$01
5A29  33       .byte $33
5A2A  40       RTI
5A2B  5E 5A 0A LSR $0A5A,X
5A2E  01 66    ORA ($66,X)
5A30  4B       .byte $4B
5A31  48       PHA
5A32  5A       PHY
5A33  0C 00 EF TSB $EF00
5A36  4D 52 4D EOR $4D52
5A39  44       .byte $44
5A3A  49 52    EOR #$52
5A3C  00       BRK
5A3D  4D 4B 44 EOR $444B
5A40  49 52    EOR #$52
5A42  00       BRK
5A43  45 43    EOR $43
5A45  48       PHA
5A46  4F 00 4B BBR4 $00,L5A94
5A49  49 4C    EOR #$4C
5A4B  4C 00 43 JMP L4300
5A4E  41 54    EOR ($54,X)
5A50  00       BRK
5A51  50 57    BVC L5AAA
5A53  44       .byte $44
5A54  00       BRK
5A55  52 4D    EOR ($4D)
5A57  00       BRK
5A58  4C 53 00 JMP L0053
5A5B  43       .byte $43
5A5C  50 00    BVC L5A5E

L5A5E:
5A5E  50 53    BVC L5AB3
5A60  00       BRK
5A61  43       .byte $43
5A62  44       .byte $44
5A63  00       BRK
5A64  4D 56 00 EOR $0056
5A67  30 3A    BMI L5AA3
5A69  2F 3E 20 BBR2 $3E,L5A8C
5A6C  00       BRK
5A6D  52 45    EOR ($45)
5A6F  44       .byte $44
5A70  49 52    EOR #$52
5A72  3F 0D 00 BBR3 $0D,L5A75

L5A75:
5A75  63       .byte $63
5A76  64 3A    STZ $3A
5A78  20 70 72 JSR L7270
5A7B  65 76    ADC $76
5A7D  69 6F    ADC #$6F
5A7F  75 73    ADC $73,X

L5A81:
5A81  20 64 69 JSR L6964
5A84  72 65    ADC ($65)
5A86  63       .byte $63
5A87  74 6F    STZ $6F,X
5A89  72 79    ADC ($79)
5A8B  20 6E 6F JSR L6F6E
5A8E  74 20    STZ $20,X
5A90  73       .byte $73
5A91  65 74    ADC $74
5A93  0D 00 63 ORA $6300
5A96  64 3A    STZ $3A
5A98  20 63 61 JSR L6163
5A9B  6E 6E 6F ROR $6F6E
5A9E  74 20    STZ $20,X
5AA0  63       .byte $63
5AA1  68       PLA
5AA2  61 6E    ADC ($6E,X)
5AA4  67 65    RMB6 $65
5AA6  20 64 69 JSR L6964
5AA9  72 65    ADC ($65)
5AAB  63       .byte $63
5AAC  74 6F    STZ $6F,X
5AAE  72 79    ADC ($79)
5AB0  0D 00 0D ORA $0D00

L5AB3:
5AB3  00       BRK
5AB4  5E 43 0D LSR $0D43,X
5AB7  00       BRK
5AB8  20 00 0D JSR L0D00
5ABB  00       BRK
5ABC  63       .byte $63
5ABD  61 74    ADC ($74,X)
5ABF  3A       DEC
5AC0  20 74 6F JSR L6F74
5AC3  6F 20 6D BBR6 $20,L5B33
5AC6  61 6E    ADC ($6E,X)
5AC8  79 20 61 ADC $6120,Y
5ACB  72 67    ADC ($67)
5ACD  75 6D    ADC $6D,X
5ACF  65 6E    ADC $6E
5AD1  74 73    STZ $73,X
5AD3  0D 00 63 ORA $6300
5AD6  61 74    ADC ($74,X)
5AD8  3A       DEC
5AD9  20 70 61 JSR L6170
5ADC  74 68    STZ $68,X
5ADE  6E 61 6D ROR $6D61
5AE1  65 20    ADC $20
5AE3  74 6F    STZ $6F,X
5AE5  6F 20 6C BBR6 $20,L5B54
5AE8  6F 6E 67 BBR6 $6E,L5B52
5AEB  0D 00 63 ORA $6300
5AEE  61 74    ADC ($74,X)
5AF0  3A       DEC
5AF1  20 63 61 JSR L6163
5AF4  6E 6E 6F ROR $6F6E
5AF7  74 20    STZ $20,X
5AF9  6F 70 65 BBR6 $70,L5B61
5AFC  6E 20 66 ROR $6620
5AFF  69 6C    ADC #$6C
5B01  65 0D    ADC $0D
5B03  00       BRK
5B04  63       .byte $63
5B05  61 74    ADC ($74,X)
5B07  3A       DEC
5B08  20 72 65 JSR L6572
5B0B  61 64    ADC ($64,X)
5B0D  20 65 72 JSR L7265
5B10  72 6F    ADC ($6F)
5B12  72 0D    ADC ($0D)
5B14  00       BRK
5B15  63       .byte $63
5B16  61 74    ADC ($74,X)
5B18  3A       DEC
5B19  20 77 72 JSR L7277
5B1C  69 74    ADC #$74
5B1E  65 20    ADC $20
5B20  65 72    ADC $72
5B22  72 6F    ADC ($6F)
5B24  72 0D    ADC ($0D)
5B26  00       BRK
5B27  63       .byte $63
5B28  61 74    ADC ($74,X)
5B2A  3A       DEC
5B2B  20 63 6C JSR L6C63
5B2E  6F 73 65 BBR6 $73,L5B96
5B31  20 65 72 JSR L7265
5B34  72 6F    ADC ($6F)
5B36  72 0D    ADC ($0D)
5B38  00       BRK
5B39  70 61    BVS L5B9C
5B3B  74 68    STZ $68,X
5B3D  3A       DEC
5B3E  20 70 61 JSR L6170
5B41  74 68    STZ $68,X
5B43  6E 61 6D ROR $6D61
5B46  65 20    ADC $20
5B48  74 6F    STZ $6F,X
5B4A  6F 20 6C BBR6 $20,L5BB9
5B4D  6F 6E 67 BBR6 $6E,L5BB7
5B50  0D 00 72 ORA $7200
5B53  6D 3A 20 ADC $203A
5B56  6D 69 73 ADC $7369
5B59  73       .byte $73
5B5A  69 6E    ADC #$6E
5B5C  67 20    RMB6 $20
5B5E  66 69    ROR $69
5B60  6C 65 0D JMP ($0D65)
5B63  00       BRK
5B64  72 6D    ADC ($6D)
5B66  3A       DEC
5B67  20 74 6F JSR L6F74
5B6A  6F 20 6D BBR6 $20,L5BDA
5B6D  61 6E    ADC ($6E,X)
5B6F  79 20 61 ADC $6120,Y
5B72  72 67    ADC ($67)
5B74  75 6D    ADC $6D,X
5B76  65 6E    ADC $6E
5B78  74 73    STZ $73,X
5B7A  0D 00 72 ORA $7200
5B7D  6D 3A 20 ADC $203A
5B80  66 69    ROR $69
5B82  6C 65 20 JMP ($2065)
5B85  64 6F    STZ $6F
5B87  65 73    ADC $73
5B89  20 6E 6F JSR L6F6E
5B8C  74 20    STZ $20,X
5B8E  65 78    ADC $78
5B90  69 73    ADC #$73
5B92  74 0D    STZ $0D,X
5B94  00       BRK
5B95  72 6D    ADC ($6D)
5B97  3A       DEC
5B98  20 69 6E JSR L6E69
5B9B  76 61    ROR $61,X
5B9D  6C 69 64 JMP (_nbox_line_len)
5BA0  20 66 69 JSR L6966
5BA3  6C 65 20 JMP ($2065)
5BA6  6E 61 6D ROR $6D61
5BA9  65 0D    ADC $0D
5BAB  00       BRK
5BAC  72 6D    ADC ($6D)
5BAE  3A       DEC
5BAF  20 63 61 JSR L6163
5BB2  6E 6E 6F ROR $6F6E
5BB5  74 20    STZ $20,X

L5BB7:
5BB7  72 65    ADC ($65)

L5BB9:
5BB9  6D 6F 76 ADC $766F
5BBC  65 20    ADC $20
5BBE  66 69    ROR $69
5BC0  6C 65 0D JMP ($0D65)
5BC3  00       BRK
5BC4  6D 6B 64 ADC _nbox_launch_id
5BC7  69 72    ADC #$72
5BC9  3A       DEC
5BCA  20 6D 69 JSR neox_open_fd_ptr
5BCD  73       .byte $73
5BCE  73       .byte $73
5BCF  69 6E    ADC #$6E
5BD1  67 20    RMB6 $20
5BD3  64 69    STZ $69
5BD5  72 65    ADC ($65)
5BD7  63       .byte $63
5BD8  74 6F    STZ $6F,X

L5BDA:
5BDA  72 79    ADC ($79)
5BDC  0D 00 6D ORA $6D00
5BDF  6B       .byte $6B
5BE0  64 69    STZ $69
5BE2  72 3A    ADC ($3A)
5BE4  20 74 6F JSR L6F74
5BE7  6F 20 6D BBR6 $20,L5C57
5BEA  61 6E    ADC ($6E,X)
5BEC  79 20 61 ADC $6120,Y
5BEF  72 67    ADC ($67)
5BF1  75 6D    ADC $6D,X
5BF3  65 6E    ADC $6E
5BF5  74 73    STZ $73,X
5BF7  0D 00 6D ORA $6D00
5BFA  6B       .byte $6B
5BFB  64 69    STZ $69
5BFD  72 3A    ADC ($3A)
5BFF  20 69 6E JSR L6E69
5C02  76 61    ROR $61,X
5C04  6C 69 64 JMP (_nbox_line_len)
5C07  20 64 69 JSR L6964
5C0A  72 65    ADC ($65)
5C0C  63       .byte $63
5C0D  74 6F    STZ $6F,X
5C0F  72 79    ADC ($79)
5C11  20 6E 61 JSR L616E
5C14  6D 65 0D ADC $0D65
5C17  00       BRK
5C18  6D 6B 64 ADC _nbox_launch_id
5C1B  69 72    ADC #$72
5C1D  3A       DEC
5C1E  20 63 61 JSR L6163
5C21  6E 6E 6F ROR $6F6E
5C24  74 20    STZ $20,X
5C26  63       .byte $63
5C27  72 65    ADC ($65)
5C29  61 74    ADC ($74,X)
5C2B  65 20    ADC $20
5C2D  64 69    STZ $69
5C2F  72 65    ADC ($65)
5C31  63       .byte $63
5C32  74 6F    STZ $6F,X
5C34  72 79    ADC ($79)
5C36  0D 00 72 ORA $7200
5C39  6D 64 69 ADC $6964
5C3C  72 3A    ADC ($3A)
5C3E  20 6D 69 JSR neox_open_fd_ptr
5C41  73       .byte $73
5C42  73       .byte $73
5C43  69 6E    ADC #$6E
5C45  67 20    RMB6 $20
5C47  64 69    STZ $69
5C49  72 65    ADC ($65)
5C4B  63       .byte $63
5C4C  74 6F    STZ $6F,X
5C4E  72 79    ADC ($79)
5C50  0D 00 72 ORA $7200
5C53  6D 64 69 ADC $6964
5C56  72 3A    ADC ($3A)
5C58  20 74 6F JSR L6F74
5C5B  6F 20 6D BBR6 $20,L5CCB
5C5E  61 6E    ADC ($6E,X)
5C60  79 20 61 ADC $6120,Y
5C63  72 67    ADC ($67)
5C65  75 6D    ADC $6D,X
5C67  65 6E    ADC $6E
5C69  74 73    STZ $73,X
5C6B  0D 00 72 ORA $7200
5C6E  6D 64 69 ADC $6964
5C71  72 3A    ADC ($3A)
5C73  20 64 69 JSR L6964
5C76  72 65    ADC ($65)
5C78  63       .byte $63
5C79  74 6F    STZ $6F,X
5C7B  72 79    ADC ($79)
5C7D  20 64 6F JSR L6F64
5C80  65 73    ADC $73
5C82  20 6E 6F JSR L6F6E
5C85  74 20    STZ $20,X
5C87  65 78    ADC $78
5C89  69 73    ADC #$73
5C8B  74 0D    STZ $0D,X
5C8D  00       BRK
5C8E  72 6D    ADC ($6D)
5C90  64 69    STZ $69
5C92  72 3A    ADC ($3A)
5C94  20 69 6E JSR L6E69
5C97  76 61    ROR $61,X
5C99  6C 69 64 JMP (_nbox_line_len)
5C9C  20 64 69 JSR L6964
5C9F  72 65    ADC ($65)
5CA1  63       .byte $63
5CA2  74 6F    STZ $6F,X
5CA4  72 79    ADC ($79)
5CA6  20 6E 61 JSR L616E
5CA9  6D 65 0D ADC $0D65
5CAC  00       BRK
5CAD  72 6D    ADC ($6D)
5CAF  64 69    STZ $69
5CB1  72 3A    ADC ($3A)
5CB3  20 63 61 JSR L6163
5CB6  6E 6E 6F ROR $6F6E
5CB9  74 20    STZ $20,X
5CBB  72 65    ADC ($65)
5CBD  6D 6F 76 ADC $766F
5CC0  65 20    ADC $20
5CC2  64 69    STZ $69
5CC4  72 65    ADC ($65)
5CC6  63       .byte $63
5CC7  74 6F    STZ $6F,X
5CC9  72 79    ADC ($79)

L5CCB:
5CCB  0D 00 6D ORA $6D00
5CCE  76 3A    ROR $3A,X
5CD0  20 73 6F JSR L6F73
5CD3  75 72    ADC $72,X
5CD5  63       .byte $63
5CD6  65 20    ADC $20
5CD8  61 6E    ADC ($6E,X)
5CDA  64 20    STZ $20
5CDC  64 65    STZ $65
5CDE  73       .byte $73
5CDF  74 69    STZ $69,X
5CE1  6E 61 74 ROR $7461
5CE4  69 6F    ADC #$6F
5CE6  6E 20 72 ROR $7220
5CE9  65 71    ADC $71
5CEB  75 69    ADC $69,X
5CED  72 65    ADC ($65)
5CEF  64 0D    STZ $0D
5CF1  00       BRK
5CF2  6D 76 3A ADC $3A76
5CF5  20 74 6F JSR L6F74
5CF8  6F 20 6D BBR6 $20,L5D68
5CFB  61 6E    ADC ($6E,X)
5CFD  79 20 61 ADC $6120,Y
5D00  72 67    ADC ($67)
5D02  75 6D    ADC $6D,X
5D04  65 6E    ADC $6E
5D06  74 73    STZ $73,X
5D08  0D 00 6D ORA $6D00
5D0B  76 3A    ROR $3A,X
5D0D  20 73 6F JSR L6F73
5D10  75 72    ADC $72,X
5D12  63       .byte $63
5D13  65 20    ADC $20
5D15  64 6F    STZ $6F
5D17  65 73    ADC $73
5D19  20 6E 6F JSR L6F6E
5D1C  74 20    STZ $20,X
5D1E  65 78    ADC $78
5D20  69 73    ADC #$73
5D22  74 0D    STZ $0D,X
5D24  00       BRK
5D25  6D 76 3A ADC $3A76
5D28  20 69 6E JSR L6E69
5D2B  76 61    ROR $61,X
5D2D  6C 69 64 JMP (_nbox_line_len)
5D30  20 73 6F JSR L6F73
5D33  75 72    ADC $72,X
5D35  63       .byte $63
5D36  65 20    ADC $20
5D38  6F 72 20 BBR6 $72,L5D5B
5D3B  64 65    STZ $65
5D3D  73       .byte $73
5D3E  74 69    STZ $69,X
5D40  6E 61 74 ROR $7461
5D43  69 6F    ADC #$6F
5D45  6E 20 6E ROR $6E20
5D48  61 6D    ADC ($6D,X)
5D4A  65 0D    ADC $0D
5D4C  00       BRK
5D4D  6D 76 3A ADC $3A76
5D50  20 63 61 JSR L6163
5D53  6E 6E 6F ROR $6F6E
5D56  74 20    STZ $20,X
5D58  72 65    ADC ($65)
5D5A  6E 61 6D ROR $6D61
5D5D  65 20    ADC $20
5D5F  70 61    BVS L5DC2
5D61  74 68    STZ $68,X
5D63  0D 00 63 ORA $6300
5D66  70 3A    BVS L5DA2

L5D68:
5D68  20 73 6F JSR L6F73
5D6B  75 72    ADC $72,X
5D6D  63       .byte $63
5D6E  65 20    ADC $20
5D70  61 6E    ADC ($6E,X)
5D72  64 20    STZ $20
5D74  64 65    STZ $65
5D76  73       .byte $73
5D77  74 69    STZ $69,X
5D79  6E 61 74 ROR $7461
5D7C  69 6F    ADC #$6F
5D7E  6E 20 72 ROR $7220
5D81  65 71    ADC $71
5D83  75 69    ADC $69,X
5D85  72 65    ADC ($65)
5D87  64 0D    STZ $0D
5D89  00       BRK
5D8A  63       .byte $63
5D8B  70 3A    BVS L5DC7
5D8D  20 74 6F JSR L6F74
5D90  6F 20 6D BBR6 $20,L5E00
5D93  61 6E    ADC ($6E,X)
5D95  79 20 61 ADC $6120,Y
5D98  72 67    ADC ($67)
5D9A  75 6D    ADC $6D,X
5D9C  65 6E    ADC $6E
5D9E  74 73    STZ $73,X
5DA0  0D 00 63 ORA $6300
5DA3  70 3A    BVS L5DDF
5DA5  20 73 6F JSR L6F73
5DA8  75 72    ADC $72,X
5DAA  63       .byte $63
5DAB  65 20    ADC $20
5DAD  64 6F    STZ $6F
5DAF  65 73    ADC $73
5DB1  20 6E 6F JSR L6F6E
5DB4  74 20    STZ $20,X
5DB6  65 78    ADC $78
5DB8  69 73    ADC #$73
5DBA  74 0D    STZ $0D,X
5DBC  00       BRK
5DBD  63       .byte $63
5DBE  70 3A    BVS L5DFA
5DC0  20 69 6E JSR L6E69
5DC3  76 61    ROR $61,X
5DC5  6C 69 64 JMP (_nbox_line_len)
5DC8  20 73 6F JSR L6F73
5DCB  75 72    ADC $72,X
5DCD  63       .byte $63
5DCE  65 20    ADC $20
5DD0  6F 72 20 BBR6 $72,L5DF3
5DD3  64 65    STZ $65
5DD5  73       .byte $73
5DD6  74 69    STZ $69,X
5DD8  6E 61 74 ROR $7461
5DDB  69 6F    ADC #$6F
5DDD  6E 20 6E ROR $6E20
5DE0  61 6D    ADC ($6D,X)
5DE2  65 0D    ADC $0D
5DE4  00       BRK
5DE5  63       .byte $63
5DE6  70 3A    BVS L5E22
5DE8  20 73 6F JSR L6F73
5DEB  75 72    ADC $72,X
5DED  63       .byte $63
5DEE  65 20    ADC $20
5DF0  61 6E    ADC ($6E,X)
5DF2  64 20    STZ $20
5DF4  64 65    STZ $65
5DF6  73       .byte $73
5DF7  74 69    STZ $69,X
5DF9  6E 61 74 ROR $7461
5DFC  69 6F    ADC #$6F
5DFE  6E 20 61 ROR $6120
5E01  72 65    ADC ($65)
5E03  20 74 68 JSR L6874
5E06  65 20    ADC $20
5E08  73       .byte $73
5E09  61 6D    ADC ($6D,X)
5E0B  65 0D    ADC $0D
5E0D  00       BRK
5E0E  63       .byte $63
5E0F  70 3A    BVS L5E4B
5E11  20 63 61 JSR L6163
5E14  6E 6E 6F ROR $6F6E
5E17  74 20    STZ $20,X
5E19  6F 70 65 BBR6 $70,L5E81
5E1C  6E 20 73 ROR $7320
5E1F  6F 75 72 BBR6 $75,L5E94

L5E22:
5E22  63       .byte $63
5E23  65 0D    ADC $0D
5E25  00       BRK
5E26  63       .byte $63
5E27  70 3A    BVS L5E63
5E29  20 63 61 JSR L6163
5E2C  6E 6E 6F ROR $6F6E
5E2F  74 20    STZ $20,X
5E31  63       .byte $63
5E32  72 65    ADC ($65)
5E34  61 74    ADC ($74,X)
5E36  65 20    ADC $20
5E38  64 65    STZ $65
5E3A  73       .byte $73
5E3B  74 69    STZ $69,X
5E3D  6E 61 74 ROR $7461
5E40  69 6F    ADC #$6F
5E42  6E 0D 00 ROR $000D
5E45  63       .byte $63
5E46  70 3A    BVS L5E82
5E48  20 72 65 JSR L6572

L5E4B:
5E4B  61 64    ADC ($64,X)
5E4D  20 65 72 JSR L7265
5E50  72 6F    ADC ($6F)
5E52  72 0D    ADC ($0D)
5E54  00       BRK
5E55  63       .byte $63
5E56  70 3A    BVS L5E92
5E58  20 77 72 JSR L7277
5E5B  69 74    ADC #$74
5E5D  65 20    ADC $20
5E5F  65 72    ADC $72
5E61  72 6F    ADC ($6F)

L5E63:
5E63  72 0D    ADC ($0D)
5E65  00       BRK
5E66  63       .byte $63
5E67  70 3A    BVS L5EA3
5E69  20 63 6C JSR L6C63
5E6C  6F 73 65 BBR6 $73,L5ED4
5E6F  20 65 72 JSR L7265
5E72  72 6F    ADC ($6F)
5E74  72 0D    ADC ($0D)
5E76  00       BRK
5E77  63       .byte $63
5E78  64 3A    STZ $3A
5E7A  20 74 6F JSR L6F74
5E7D  6F 20 6D BBR6 $20,L5EED
5E80  61 6E    ADC ($6E,X)

L5E82:
5E82  79 20 61 ADC $6120,Y
5E85  72 67    ADC ($67)
5E87  75 6D    ADC $6D,X
5E89  65 6E    ADC $6E
5E8B  74 73    STZ $73,X
5E8D  0D 00 63 ORA $6300
5E90  64 3A    STZ $3A

L5E92:
5E92  20 64 69 JSR L6964
5E95  72 65    ADC ($65)
5E97  63       .byte $63
5E98  74 6F    STZ $6F,X
5E9A  72 79    ADC ($79)
5E9C  20 64 6F JSR L6F64
5E9F  65 73    ADC $73
5EA1  20 6E 6F JSR L6F6E
5EA4  74 20    STZ $20,X
5EA6  65 78    ADC $78
5EA8  69 73    ADC #$73
5EAA  74 0D    STZ $0D,X
5EAC  00       BRK
5EAD  63       .byte $63
5EAE  64 3A    STZ $3A
5EB0  20 69 6E JSR L6E69
5EB3  76 61    ROR $61,X
5EB5  6C 69 64 JMP (_nbox_line_len)
5EB8  20 64 69 JSR L6964
5EBB  72 65    ADC ($65)
5EBD  63       .byte $63
5EBE  74 6F    STZ $6F,X
5EC0  72 79    ADC ($79)
5EC2  20 6E 61 JSR L616E
5EC5  6D 65 0D ADC $0D65
5EC8  00       BRK
5EC9  63       .byte $63
5ECA  64 3A    STZ $3A
5ECC  20 63 61 JSR L6163
5ECF  6E 6E 6F ROR $6F6E
5ED2  74 20    STZ $20,X

L5ED4:
5ED4  63       .byte $63
5ED5  68       PLA
5ED6  61 6E    ADC ($6E,X)
5ED8  67 65    RMB6 $65
5EDA  20 64 69 JSR L6964
5EDD  72 65    ADC ($65)
5EDF  63       .byte $63
5EE0  74 6F    STZ $6F,X
5EE2  72 79    ADC ($79)
5EE4  0D 00 0D ORA $0D00
5EE7  00       BRK
5EE8  70 77    BVS L5F61
5EEA  64 3A    STZ $3A
5EEC  20 74 6F JSR L6F74
5EEF  6F 20 6D BBR6 $20,L5F5F
5EF2  61 6E    ADC ($6E,X)
5EF4  79 20 61 ADC $6120,Y
5EF7  72 67    ADC ($67)
5EF9  75 6D    ADC $6D,X
5EFB  65 6E    ADC $6E
5EFD  74 73    STZ $73,X
5EFF  0D 00 70 ORA $7000
5F02  77 64    RMB7 $64
5F04  3A       DEC
5F05  20 63 61 JSR L6163
5F08  6E 6E 6F ROR $6F6E
5F0B  74 20    STZ $20,X
5F0D  67 65    RMB6 $65
5F0F  74 20    STZ $20,X
5F11  63       .byte $63
5F12  75 72    ADC $72,X
5F14  72 65    ADC ($65)
5F16  6E 74 20 ROR $2074
5F19  64 69    STZ $69
5F1B  72 65    ADC ($65)
5F1D  63       .byte $63
5F1E  74 6F    STZ $6F,X
5F20  72 79    ADC ($79)
5F22  0D 00 70 ORA $7000
5F25  77 64    RMB7 $64
5F27  3A       DEC
5F28  20 77 72 JSR L7277
5F2B  69 74    ADC #$74
5F2D  65 20    ADC $20
5F2F  65 72    ADC $72
5F31  72 6F    ADC ($6F)
5F33  72 0D    ADC ($0D)
5F35  00       BRK
5F36  2E 00 3C ROL $3C00
5F39  44       .byte $44
5F3A  49 52    EOR #$52
5F3C  3E 00 0D ROL $0D00,X
5F3F  00       BRK
5F40  20 00 6C JSR __USER_IMAGE_SIZE__
5F43  73       .byte $73
5F44  3A       DEC
5F45  20 74 6F JSR L6F74
5F48  6F 20 6D BBR6 $20,L5FB8
5F4B  61 6E    ADC ($6E,X)
5F4D  79 20 61 ADC $6120,Y
5F50  72 67    ADC ($67)
5F52  75 6D    ADC $6D,X
5F54  65 6E    ADC $6E
5F56  74 73    STZ $73,X
5F58  0D 00 6C ORA __USER_IMAGE_SIZE__
5F5B  73       .byte $73
5F5C  3A       DEC
5F5D  20 64 69 JSR L6964
5F60  72 65    ADC ($65)
5F62  63       .byte $63
5F63  74 6F    STZ $6F,X
5F65  72 79    ADC ($79)
5F67  20 64 6F JSR L6F64
5F6A  65 73    ADC $73
5F6C  20 6E 6F JSR L6F6E
5F6F  74 20    STZ $20,X
5F71  65 78    ADC $78
5F73  69 73    ADC #$73
5F75  74 0D    STZ $0D,X
5F77  00       BRK
5F78  6C 73 3A JMP ($3A73)
5F7B  20 69 6E JSR L6E69
5F7E  76 61    ROR $61,X
5F80  6C 69 64 JMP (_nbox_line_len)
5F83  20 64 69 JSR L6964
5F86  72 65    ADC ($65)
5F88  63       .byte $63
5F89  74 6F    STZ $6F,X
5F8B  72 79    ADC ($79)
5F8D  20 6E 61 JSR L616E
5F90  6D 65 0D ADC $0D65
5F93  00       BRK
5F94  6C 73 3A JMP ($3A73)
5F97  20 63 61 JSR L6163
5F9A  6E 6E 6F ROR $6F6E
5F9D  74 20    STZ $20,X
5F9F  6F 70 65 BBR6 $70,L6007
5FA2  6E 20 64 ROR $6420
5FA5  69 72    ADC #$72
5FA7  65 63    ADC $63
5FA9  74 6F    STZ $6F,X
5FAB  72 79    ADC ($79)
5FAD  0D 00 6C ORA __USER_IMAGE_SIZE__
5FB0  73       .byte $73
5FB1  3A       DEC
5FB2  20 72 65 JSR L6572
5FB5  61 64    ADC ($64,X)
5FB7  20 65 72 JSR L7265
5FBA  72 6F    ADC ($6F)
5FBC  72 0D    ADC ($0D)
5FBE  00       BRK
5FBF  6C 73 3A JMP ($3A73)
5FC2  20 63 6C JSR L6C63
5FC5  6F 73 65 BBR6 $73,L602D
5FC8  20 65 72 JSR L7265
5FCB  72 6F    ADC ($6F)
5FCD  72 0D    ADC ($0D)
5FCF  00       BRK
5FD0  6C 73 3A JMP ($3A73)
5FD3  20 77 72 JSR L7277
5FD6  69 74    ADC #$74
5FD8  65 20    ADC $20
5FDA  65 72    ADC $72
5FDC  72 6F    ADC ($6F)
5FDE  72 0D    ADC ($0D)
5FE0  00       BRK
5FE1  50 49    BVC L602C
5FE3  44       .byte $44
5FE4  20 50 50 JSR _neox_delete
5FE7  49 44    EOR #$44
5FE9  20 53 54 JSR L5453
5FEC  20 20 57 JSR L5720
5FEF  41 49    EOR ($49,X)
5FF1  54       .byte $54
5FF2  20 4F 42 JSR L424F
5FF5  4A       LSR
5FF6  20 53 49 JSR L4953
5FF9  47 0D    RMB4 $0D
5FFB  00       BRK
5FFC  70 73    BVS L6071
5FFE  3A       DEC
5FFF  20 74 6F JSR L6F74
6002  6F 20 6D BBR6 $20,L6072
6005  61 6E    ADC ($6E,X)

L6007:
6007  79 20 61 ADC $6120,Y
600A  72 67    ADC ($67)
600C  75 6D    ADC $6D,X
600E  65 6E    ADC $6E
6010  74 73    STZ $73,X
6012  0D 00 70 ORA $7000
6015  73       .byte $73
6016  3A       DEC
6017  20 63 61 JSR L6163
601A  6E 6E 6F ROR $6F6E
601D  74 20    STZ $20,X
601F  72 65    ADC ($65)
6021  61 64    ADC ($64,X)
6023  20 70 72 JSR L7270
6026  6F 63 65 BBR6 $63,L608E
6029  73       .byte $73
602A  73       .byte $73
602B  20 74 61 JSR L6174
602E  62       .byte $62
602F  6C 65 0D JMP ($0D65)
6032  00       BRK
6033  70 73    BVS L60A8
6035  3A       DEC
6036  20 77 72 JSR L7277
6039  69 74    ADC #$74
603B  65 20    ADC $20
603D  65 72    ADC $72
603F  72 6F    ADC ($6F)
6041  72 0D    ADC ($0D)
6043  00       BRK
6044  20 00 0D JSR L0D00
6047  00       BRK
6048  45 4D    EOR $4D
604A  50 00    BVC L604C

L604C:
604C  4E 45 57 LSR $5745
604F  00       BRK
6050  52 44    EOR ($44)
6052  59 00 52 EOR $5200,Y
6055  55 4E    EOR $4E,X
6057  00       BRK
6058  42       .byte $42
6059  4C 4B 00 JMP L004B
605C  53       .byte $53
605D  54       .byte $54
605E  50 00    BVC L6060

L6060:
6060  5A       PHY
6061  4F 4D 00 BBR4 $4D,L6064

L6064:
6064  3F 3F 3F BBR3 $3F,L60A6
6067  00       BRK
6068  2D 2D 2D AND $2D2D
606B  2D 00 43 AND $4300
606E  4F 4E 20 BBR4 $4E,L6091

L6071:
6071  00       BRK

L6072:
6072  44       .byte $44
6073  45 56    EOR $56
6075  20 00 50 JSR L5000
6078  49 50    EOR #$50
607A  52 00    EOR ($00)
607C  54       .byte $54
607D  49 4D    EOR #$4D
607F  52 00    EOR ($00)
6081  50 52    BVC L60D5
6083  4F 43 00 BBR4 $43,L6086

L6086:
6086  4C 4F 43 JMP L434F
6089  4B       .byte $4B
608A  00       BRK
608B  50 49    BVC L60D6
608D  50 57    BVC L60E6
608F  00       BRK
6090  52 50    EOR ($50)
6092  20 20 00 JSR __C_ZP_START__
6095  3F 3F 3F BBR3 $3F,L60D7
6098  3F 00 2D BBR3 $00,L60C8
609B  2D 2D 00 AND $002D
609E  46 49    LSR $49
60A0  4F 00 50 BBR4 $00,L60F3
60A3  52 43    EOR ($43)
60A5  00       BRK

L60A6:
60A6  3F 3F 3F BBR3 $3F,L60E8
60A9  00       BRK
60AA  20 20 20 JSR L2020
60AD  00       BRK
60AE  6B       .byte $6B
60AF  69 6C    ADC #$6C
60B1  6C 3A 20 JMP ($203A)
60B4  75 73    ADC $73,X
60B6  61 67    ADC ($67,X)
60B8  65 3A    ADC $3A
60BA  20 6B 69 JSR L696B
60BD  6C 6C 20 JMP ($206C)
60C0  2D 53 49 AND $4953
60C3  47 4E    RMB4 $4E
60C5  41 4C    EOR ($4C,X)
60C7  20 50 49 JSR L4950
60CA  44       .byte $44
60CB  0D 00 6B ORA $6B00
60CE  69 6C    ADC #$6C
60D0  6C 3A 20 JMP ($203A)
60D3  69 6E    ADC #$6E

L60D5:
60D5  76 61    ROR $61,X

L60D7:
60D7  6C 69 64 JMP (_nbox_line_len)
60DA  20 73 69 JSR L6973
60DD  67 6E    RMB6 $6E
60DF  61 6C    ADC ($6C,X)
60E1  0D 00 6B ORA $6B00
60E4  69 6C    ADC #$6C

L60E6:
60E6  6C 3A 20 JMP ($203A)
60E9  69 6E    ADC #$6E
60EB  76 61    ROR $61,X
60ED  6C 69 64 JMP (_nbox_line_len)
60F0  20 70 69 JSR neox_open_status

L60F3:
60F3  64 0D    STZ $0D
60F5  00       BRK
60F6  6B       .byte $6B
60F7  69 6C    ADC #$6C
60F9  6C 3A 20 JMP ($203A)
60FC  73       .byte $73
60FD  69 67    ADC #$67
60FF  6E 61 6C ROR $6C61
6102  20 66 61 JSR L6166
6105  69 6C    ADC #$6C
6107  65 64    ADC $64
6109  0D 00 30 ORA $3000
610C  31 32    AND ($32),Y
610E  33       .byte $33
610F  34 35    BIT $35,X
6111  36 37    ROL $37,X
6113  38       SEC
6114  39 41 42 AND $4241,Y
6117  43       .byte $43
6118  44       .byte $44
6119  45 46    EOR $46
611B  00       BRK

addeq0sp:
611C  A0 00    LDY #$00

addeqysp:
611E  18       CLC
611F  71 20    ADC ($20),Y
6121  91 20    STA ($20),Y
6123  48       PHA
6124  C8       INY
6125  8A       TXA
6126  71 20    ADC ($20),Y
6128  91 20    STA ($20),Y
612A  AA       TAX
612B  68       PLA
612C  60       RTS

addysp1:
612D  C8       INY

addysp:
612E  48       PHA
612F  18       CLC
6130  98       TYA
6131  65 20    ADC $20
6133  85 20    STA $20
6135  90 02    BCC @L1
6137  E6 21    INC $21

@L1:
6139  68       PLA
613A  60       RTS

decsp1:
613B  A4 20    LDY $20
613D  D0 02    BNE @L1
613F  C6 21    DEC $21

@L1:
6141  C6 20    DEC $20
6143  60       RTS

decsp2:
6144  A5 20    LDA $20
6146  38       SEC
6147  E9 02    SBC #$02
6149  85 20    STA $20
614B  90 01    BCC @L1
614D  60       RTS

@L1:
614E  C6 21    DEC $21
6150  60       RTS

decsp3:
6151  A5 20    LDA $20
6153  38       SEC
6154  E9 03    SBC #$03
6156  85 20    STA $20
6158  90 01    BCC @L1
615A  60       RTS

@L1:
615B  C6 21    DEC $21
615D  60       RTS

decsp4:
615E  A5 20    LDA $20
6160  38       SEC
6161  E9 04    SBC #$04

L6163:
6163  85 20    STA $20
6165  90 01    BCC @L1
6167  60       RTS

@L1:
6168  C6 21    DEC $21
616A  60       RTS

decsp5:
616B  A5 20    LDA $20
616D  38       SEC

L616E:
616E  E9 05    SBC #$05

L6170:
6170  85 20    STA $20
6172  90 01    BCC @L1

L6174:
6174  60       RTS

@L1:
6175  C6 21    DEC $21
6177  60       RTS

decsp6:
6178  A5 20    LDA $20
617A  38       SEC
617B  E9 06    SBC #$06
617D  85 20    STA $20
617F  90 01    BCC @L1
6181  60       RTS

@L1:
6182  C6 21    DEC $21
6184  60       RTS

decsp7:
6185  A5 20    LDA $20
6187  38       SEC
6188  E9 07    SBC #$07
618A  85 20    STA $20
618C  90 01    BCC @L1
618E  60       RTS

@L1:
618F  C6 21    DEC $21
6191  60       RTS

decsp8:
6192  A5 20    LDA $20
6194  38       SEC
6195  E9 08    SBC #$08
6197  85 20    STA $20
6199  90 01    BCC @L1
619B  60       RTS

@L1:
619C  C6 21    DEC $21
619E  60       RTS

tosicmp0:
619F  A2 00    LDX #$00

tosicmp:
61A1  85 22    STA $22
61A3  86 23    STX $23
61A5  A0 00    LDY #$00
61A7  B1 20    LDA ($20),Y
61A9  AA       TAX
61AA  E6 20    INC $20
61AC  D0 02    BNE @L1
61AE  E6 21    INC $21

@L1:
61B0  B1 20    LDA ($20),Y
61B2  E6 20    INC $20
61B4  D0 02    BNE @L2
61B6  E6 21    INC $21

@L2:
61B8  38       SEC
61B9  E5 23    SBC $23
61BB  D0 09    BNE @L4
61BD  E4 22    CPX $22
61BF  F0 04    BEQ @L3
61C1  69 FF    ADC #$FF
61C3  09 01    ORA #$01

@L3:
61C5  60       RTS

@L4:
61C6  50 FD    BVC @L3
61C8  49 FF    EOR #$FF
61CA  09 01    ORA #$01
61CC  60       RTS

incsp1:
61CD  E6 20    INC $20
61CF  D0 02    BNE @L1
61D1  E6 21    INC $21

@L1:
61D3  60       RTS

popax:
61D4  A0 01    LDY #$01
61D6  B1 20    LDA ($20),Y
61D8  AA       TAX
61D9  88       DEY
61DA  B1 20    LDA ($20),Y

incsp2:
61DC  E6 20    INC $20
61DE  F0 05    BEQ @L1
61E0  E6 20    INC $20
61E2  F0 03    BEQ @L2
61E4  60       RTS

@L1:
61E5  E6 20    INC $20

@L2:
61E7  E6 21    INC $21
61E9  60       RTS

incsp3:
61EA  A0 03    LDY #$03
61EC  4C 2E 61 JMP addysp

incsp4:
61EF  A0 04    LDY #$04
61F1  4C 2E 61 JMP addysp

incsp5:
61F4  A0 05    LDY #$05
61F6  4C 2E 61 JMP addysp

incsp6:
61F9  A0 06    LDY #$06
61FB  4C 2E 61 JMP addysp

incsp7:
61FE  A0 07    LDY #$07
6200  4C 2E 61 JMP addysp

incsp8:
6203  A0 08    LDY #$08
6205  4C 2E 61 JMP addysp

toslcmp:
6208  85 28    STA $28
620A  86 29    STX $29
620C  A0 03    LDY #$03
620E  B1 20    LDA ($20),Y
6210  38       SEC
6211  E5 23    SBC $23
6213  D0 22    BNE L4
6215  88       DEY
6216  B1 20    LDA ($20),Y
6218  C5 22    CMP $22
621A  D0 0C    BNE L1
621C  88       DEY
621D  B1 20    LDA ($20),Y
621F  C5 29    CMP $29
6221  D0 05    BNE L1
6223  88       DEY
6224  B1 20    LDA ($20),Y
6226  C5 28    CMP $28

L1:
6228  08       PHP
6229  20 EF 61 JSR incsp4
622C  28       PLP
622D  F0 04    BEQ L2
622F  B0 03    BCS L3
6231  A9 FF    LDA #$FF

L2:
6233  60       RTS

L3:
6234  A9 01    LDA #$01
6236  60       RTS

L4:
6237  50 04    BVC L5
6239  49 FF    EOR #$FF
623B  09 01    ORA #$01

L5:
623D  08       PHP
623E  20 EF 61 JSR incsp4
6241  28       PLP
6242  60       RTS

ldeaxi:
6243  A0 03    LDY #$03

ldeaxidx:
6245  85 28    STA $28
6247  86 29    STX $29
6249  B1 28    LDA ($28),Y
624B  88       DEY
624C  85 23    STA $23
624E  B1 28    LDA ($28),Y
6250  88       DEY
6251  85 22    STA $22
6253  B1 28    LDA ($28),Y
6255  88       DEY
6256  AA       TAX
6257  B1 28    LDA ($28),Y
6259  60       RTS

ldeax0sp:
625A  A0 03    LDY #$03

ldeaxysp:
625C  B1 20    LDA ($20),Y
625E  85 23    STA $23
6260  88       DEY
6261  B1 20    LDA ($20),Y
6263  85 22    STA $22
6265  88       DEY
6266  B1 20    LDA ($20),Y
6268  AA       TAX
6269  88       DEY
626A  B1 20    LDA ($20),Y
626C  60       RTS

tosneeax:
626D  20 08 62 JSR toslcmp
6270  4C 27 63 JMP boolne

pushl0:
6273  A9 00    LDA #$00
6275  AA       TAX

push0ax:
6276  A0 00    LDY #$00
6278  84 22    STY $22
627A  84 23    STY $23

pusheax:
627C  48       PHA
627D  20 5E 61 JSR decsp4
6280  A0 03    LDY #$03
6282  A5 23    LDA $23
6284  91 20    STA ($20),Y
6286  88       DEY
6287  A5 22    LDA $22
6289  91 20    STA ($20),Y
628B  88       DEY
628C  8A       TXA
628D  91 20    STA ($20),Y
628F  68       PLA
6290  88       DEY
6291  91 20    STA ($20),Y
6293  60       RTS

tosudiv0ax:
6294  A0 00    LDY #$00
6296  84 22    STY $22
6298  84 23    STY $23

tosudiveax:
629A  20 A5 62 JSR getlop
629D  20 C9 62 JSR udiv32
62A0  A5 28    LDA $28
62A2  A6 29    LDX $29
62A4  60       RTS

getlop:
62A5  85 2C    STA $2C
62A7  86 2D    STX $2D
62A9  A5 22    LDA $22
62AB  85 2E    STA $2E
62AD  A5 23    LDA $23
62AF  85 2F    STA $2F
62B1  A0 00    LDY #$00
62B3  B1 20    LDA ($20),Y
62B5  C8       INY
62B6  85 28    STA $28
62B8  B1 20    LDA ($20),Y
62BA  85 29    STA $29
62BC  C8       INY
62BD  B1 20    LDA ($20),Y
62BF  85 22    STA $22
62C1  C8       INY
62C2  B1 20    LDA ($20),Y
62C4  85 23    STA $23
62C6  4C 2D 61 JMP addysp1

udiv32:
62C9  A9 00    LDA #$00
62CB  85 2B    STA $2B
62CD  85 32    STA $32
62CF  85 33    STA $33
62D1  A0 20    LDY #$20

L0:
62D3  06 28    ASL $28
62D5  26 29    ROL $29
62D7  26 22    ROL $22
62D9  26 23    ROL $23
62DB  2A       ROL
62DC  26 2B    ROL $2B
62DE  26 32    ROL $32
62E0  26 33    ROL $33
62E2  AA       TAX
62E3  C5 2C    CMP $2C
62E5  A5 2B    LDA $2B
62E7  E5 2D    SBC $2D
62E9  A5 32    LDA $32
62EB  E5 2E    SBC $2E
62ED  A5 33    LDA $33
62EF  E5 2F    SBC $2F
62F1  90 14    BCC L1
62F3  85 33    STA $33
62F5  8A       TXA
62F6  E5 2C    SBC $2C
62F8  AA       TAX
62F9  A5 2B    LDA $2B
62FB  E5 2D    SBC $2D
62FD  85 2B    STA $2B
62FF  A5 32    LDA $32
6301  E5 2E    SBC $2E
6303  85 32    STA $32
6305  E6 28    INC $28

L1:
6307  8A       TXA
6308  88       DEY
6309  D0 C8    BNE L0
630B  85 2A    STA $2A
630D  60       RTS

tosumod0ax:
630E  A0 00    LDY #$00
6310  84 22    STY $22
6312  84 23    STY $23

tosumodeax:
6314  20 A5 62 JSR getlop
6317  20 C9 62 JSR udiv32
631A  A5 32    LDA $32
631C  85 22    STA $22
631E  A5 33    LDA $33
6320  85 23    STA $23
6322  A5 2A    LDA $2A
6324  A6 2B    LDX $2B
6326  60       RTS

boolne:
6327  D0 06    BNE ret1

ret0:
6329  A2 00    LDX #$00
632B  8A       TXA
632C  60       RTS

booleq:
632D  D0 FA    BNE ret0

ret1:
632F  A2 00    LDX #$00
6331  A9 01    LDA #$01
6333  60       RTS

boolle:
6334  F0 F9    BEQ ret1

boollt:
6336  30 F7    BMI ret1
6338  A2 00    LDX #$00
633A  8A       TXA
633B  60       RTS

boolgt:
633C  F0 02    BEQ L0

boolge:
633E  10 EF    BPL ret1

L0:
6340  A2 00    LDX #$00
6342  8A       TXA
6343  60       RTS

boolule:
6344  F0 E9    BEQ ret1

boolult:
6346  90 E7    BCC ret1
6348  A2 00    LDX #$00
634A  8A       TXA
634B  60       RTS

boolugt:
634C  F0 DB    BEQ ret0

booluge:
634E  A2 00    LDX #$00
6350  8A       TXA
6351  2A       ROL
6352  60       RTS

mulax10:
6353  85 28    STA $28
6355  86 29    STX $29
6357  0A       ASL
6358  26 29    ROL $29
635A  0A       ASL
635B  26 29    ROL $29
635D  18       CLC
635E  65 28    ADC $28
6360  85 28    STA $28
6362  8A       TXA
6363  65 29    ADC $29
6365  06 28    ASL $28
6367  2A       ROL
6368  AA       TAX
6369  A5 28    LDA $28
636B  60       RTS

mulax6:
636C  85 28    STA $28
636E  86 29    STX $29
6370  0A       ASL
6371  26 29    ROL $29
6373  18       CLC
6374  65 28    ADC $28
6376  85 28    STA $28
6378  8A       TXA
6379  65 29    ADC $29
637B  06 28    ASL $28
637D  2A       ROL
637E  AA       TAX
637F  A5 28    LDA $28
6381  60       RTS

pusha0sp:
6382  A0 00    LDY #$00

pushaysp:
6384  B1 20    LDA ($20),Y

pusha:
6386  A4 20    LDY $20
6388  F0 07    BEQ @L1
638A  C6 20    DEC $20
638C  A0 00    LDY #$00
638E  91 20    STA ($20),Y
6390  60       RTS

@L1:
6391  C6 21    DEC $21
6393  C6 20    DEC $20
6395  91 20    STA ($20),Y
6397  60       RTS

push0:
6398  A9 00    LDA #$00

pusha0:
639A  A2 00    LDX #$00

pushax:
639C  48       PHA
639D  A5 20    LDA $20
639F  38       SEC
63A0  E9 02    SBC #$02
63A2  85 20    STA $20
63A4  B0 02    BCS @L1
63A6  C6 21    DEC $21

@L1:
63A8  A0 01    LDY #$01
63AA  8A       TXA
63AB  91 20    STA ($20),Y
63AD  68       PLA
63AE  88       DEY
63AF  91 20    STA ($20),Y
63B1  60       RTS

pushw0sp:
63B2  A0 03    LDY #$03

pushwysp:
63B4  A5 20    LDA $20
63B6  38       SEC
63B7  E9 02    SBC #$02
63B9  85 20    STA $20
63BB  B0 02    BCS @L1
63BD  C6 21    DEC $21

@L1:
63BF  B1 20    LDA ($20),Y
63C1  AA       TAX
63C2  88       DEY
63C3  B1 20    LDA ($20),Y
63C5  A0 00    LDY #$00
63C7  91 20    STA ($20),Y
63C9  C8       INY
63CA  8A       TXA
63CB  91 20    STA ($20),Y
63CD  60       RTS

staspidx:
63CE  48       PHA
63CF  84 30    STY $30
63D1  A0 01    LDY #$01
63D3  B1 20    LDA ($20),Y
63D5  85 29    STA $29
63D7  88       DEY
63D8  B1 20    LDA ($20),Y
63DA  85 28    STA $28
63DC  A4 30    LDY $30
63DE  68       PLA
63DF  91 28    STA ($28),Y
63E1  4C DC 61 JMP incsp2

stax0sp:
63E4  A0 00    LDY #$00

staxysp:
63E6  91 20    STA ($20),Y
63E8  C8       INY
63E9  48       PHA
63EA  8A       TXA
63EB  91 20    STA ($20),Y
63ED  68       PLA
63EE  60       RTS

steax0sp:
63EF  A0 00    LDY #$00

steaxysp:
63F1  91 20    STA ($20),Y
63F3  C8       INY
63F4  48       PHA
63F5  8A       TXA
63F6  91 20    STA ($20),Y
63F8  C8       INY
63F9  A5 22    LDA $22
63FB  91 20    STA ($20),Y
63FD  C8       INY
63FE  A5 23    LDA $23
6400  91 20    STA ($20),Y
6402  68       PLA
6403  60       RTS

subeq0sp:
6404  A0 00    LDY #$00

subeqysp:
6406  38       SEC
6407  49 FF    EOR #$FF
6409  71 20    ADC ($20),Y
640B  91 20    STA ($20),Y
640D  48       PHA
640E  C8       INY
640F  8A       TXA
6410  49 FF    EOR #$FF
6412  71 20    ADC ($20),Y
6414  91 20    STA ($20),Y
6416  AA       TAX
6417  68       PLA
6418  60       RTS

subysp:
6419  98       TYA
641A  49 FF    EOR #$FF
641C  38       SEC
641D  65 20    ADC $20
641F  85 20    STA $20
6421  B0 02    BCS @L1
6423  C6 21    DEC $21

@L1:
6425  60       RTS

jmpvec:
6426  4C FF FF JMP LFFFF
